(lp1
(dp2
S'_run_id'
p3
S'7'
sS'previous'
p4
NsS'id'
p5
S'JGI_NEMVEC'
p6
sS'chkfile'
p7
S'translate.chk'
p8
sS'sequences'
p9
S'JGI_NEMVEC.fa'
p10
sa(dp11
S'orfs'
p12
S'JGI_NEMVEC.fa.transdecoder_dir/longest_orfs.pep'
p13
sg3
S'7'
sS'cds'
p14
S'JGI_NEMVEC.fa.transdecoder_dir/longest_orfs.cds'
p15
sg7
g8
sg9
g10
sg5
g6
sg4
Nsa(dp16
S'hits'
p17
(dp18
S'93|m.2'
p19
ccopy_reg
_reconstructor
p20
(cbiolite.workflows.blast
TabularHit
p21
c__builtin__
tuple
p22
(g19
S'518'
p23
S'swissprot|O60447|EVI5_HUMAN'
p24
S'810'
p25
S'1/1'
p26
S'45.331'
p27
S'233'
p28
S'514'
p29
S'242'
p30
S'4'
S'9'
S'489'
p31
S'84'
p32
S'591'
p33
S'5.79e-152'
p34
S'457'
p35
S'swissprot|O60447|EVI5_HUMAN Ecotropic viral integration site 5 protein homolog OS=Homo sapiens (Human)'
p36
ttRp37
sS'106|m.27'
p38
g20
(g21
g22
(g38
S'192'
p39
S'swissprot|Q5ZJ17|RBG1L_CHICK'
p40
S'816'
p41
S'1/1'
p42
S'60.452'
p43
S'107'
p44
S'177'
p45
S'70'
p46
S'0'
S'2'
S'178'
p47
S'636'
p48
S'812'
p49
S'3.76e-72'
p50
S'236'
p51
S'swissprot|Q5ZJ17|RBG1L_CHICK Rab GTPase-activating protein 1-like OS=Gallus gallus (Chicken)'
p52
ttRp53
sS'100|m.17'
p54
g20
(g21
g22
(g54
S'249'
p55
S'swissprot|P12027|PSGP_ONCMY'
p56
S'542'
p57
S'1/1'
p58
S'41.202'
p59
S'96'
p60
S'233'
p61
S'137'
p62
S'0'
S'17'
p63
S'249'
p64
S'106'
p65
S'338'
p66
S'2.48e-41'
p67
S'151'
p68
S'swissprot|P12027|PSGP_ONCMY Polysialoglycoprotein OS=Oncorhynchus mykiss (Rainbow trout) (Salmo gairdneri)'
p69
ttRp70
sS'97|m.10'
p71
g20
(g21
g22
(g71
S'371'
p72
S'swissprot|Q9CL21|RECQ_PASMU'
p73
S'632'
p74
S'1/1'
p75
S'43.820'
p76
S'117'
p77
S'267'
p78
S'149'
p79
S'1'
S'1'
S'266'
p80
S'91'
p81
S'357'
p82
S'2.43e-75'
p83
S'248'
p84
S'swissprot|Q9CL21|RECQ_PASMU ATP-dependent DNA helicase RecQ OS=Pasteurella multocida (strain Pm70)'
p85
ttRp86
sS'99|m.13'
p87
g20
(g21
g22
(g87
S'137'
p88
S'swissprot|P12027|PSGP_ONCMY'
p89
S'542'
p90
S'1/1'
p91
S'42.336'
p92
S'58'
p93
S'137'
p94
S'79'
p95
S'0'
S'1'
S'137'
p96
S'111'
p97
S'247'
p98
S'5.35e-22'
p99
S'93.6'
p100
S'swissprot|P12027|PSGP_ONCMY Polysialoglycoprotein OS=Oncorhynchus mykiss (Rainbow trout) (Salmo gairdneri)'
p101
ttRp102
sS'95|m.5'
p103
g20
(g21
g22
(g103
S'283'
p104
S'swissprot|Q9GRC0|MOS_PATPE'
p105
S'351'
p106
S'1/1'
p107
S'43.130'
p108
S'113'
p109
S'262'
p110
S'141'
p111
S'5'
S'16'
p112
S'273'
p113
S'69'
p114
S'326'
p115
S'9.36e-69'
p116
S'219'
p117
S'swissprot|Q9GRC0|MOS_PATPE Serine/threonine-protein kinase mos {ECO:0000250|UniProtKB:P10741} OS=Patiria pectinifera (Starfish) (Asterina pectinifera)'
p118
ttRp119
sS'101|m.20'
p120
g20
(g21
g22
(g120
S'145'
p121
S'swissprot|P54132|BLM_HUMAN'
p122
S'1417'
p123
S'1/1'
p124
S'38.095'
p125
S'56'
p126
S'147'
p127
S'79'
p128
S'4'
S'2'
S'144'
p129
S'1021'
p130
S'1159'
p131
S'3.10e-25'
p132
S'103'
p133
S'swissprot|P54132|BLM_HUMAN Bloom syndrome protein OS=Homo sapiens (Human)'
p134
ttRp135
sS'98|m.11'
p136
g20
(g21
g22
(g136
S'582'
p137
S'swissprot|Q9Z129|RECQ1_MOUSE'
p138
S'648'
p139
S'1/1'
p140
S'54.577'
p141
S'316'
p142
S'579'
p143
S'256'
p144
S'4'
S'4'
S'582'
p145
S'8'
S'579'
p146
S'0.0'
p147
S'649'
p148
S'swissprot|Q9Z129|RECQ1_MOUSE ATP-dependent DNA helicase Q1 OS=Mus musculus (Mouse)'
p149
ttRp150
sS'96|m.6'
p151
g20
(g21
g22
(g151
S'145'
p152
S'swissprot|P12027|PSGP_ONCMY'
p153
S'542'
p154
S'1/1'
p155
S'42.069'
p156
S'61'
p157
S'145'
p158
S'81'
p159
S'3'
S'2'
S'144'
p160
S'111'
p161
S'254'
p162
S'1.20e-20'
p163
S'90.1'
p164
S'swissprot|P12027|PSGP_ONCMY Polysialoglycoprotein OS=Oncorhynchus mykiss (Rainbow trout) (Salmo gairdneri)'
p165
ttRp166
sS'107|m.28'
p167
g20
(g21
g22
(g167
S'344'
p168
S'swissprot|Q32ZE2|AA2BR_RABIT'
p169
S'332'
p170
S'1/1'
p171
S'27.419'
p172
S'85'
p173
S'310'
p174
S'150'
p175
S'12'
p176
S'40'
p177
S'296'
p178
S'20'
p179
S'307'
p180
S'1.76e-15'
p181
S'79.7'
p182
S'swissprot|Q32ZE2|AA2BR_RABIT Adenosine receptor A2b OS=Oryctolagus cuniculus (Rabbit)'
p183
ttRp184
sS'101|m.19'
p185
g20
(g21
g22
(g185
S'298'
p186
S'swissprot|Q9DEY9|BLM_XENLA'
p187
S'1364'
p188
S'1/1'
p189
S'55.052'
p190
S'158'
p191
S'287'
p192
S'122'
p193
S'3'
S'1'
S'286'
p194
S'607'
p195
S'887'
p196
S'8.92e-100'
p197
S'322'
p198
S'swissprot|Q9DEY9|BLM_XENLA Bloom syndrome protein homolog OS=Xenopus laevis (African clawed frog)'
p199
ttRp200
sS'92|m.1'
p201
g20
(g21
g22
(g201
S'330'
p202
S'swissprot|P15823|ADA1B_RAT'
p203
S'515'
p204
S'1/1'
p205
S'22.476'
p206
S'69'
p207
S'307'
p208
S'189'
p209
S'6'
S'46'
p210
S'306'
p211
S'60'
p212
S'363'
p213
S'1.05e-12'
p214
S'72.0'
p215
S'swissprot|P15823|ADA1B_RAT Alpha-1B adrenergic receptor OS=Rattus norvegicus (Rat)'
p216
ttRp217
sS'103|m.22'
p218
g20
(g21
g22
(g218
S'364'
p219
S'swissprot|Q5XH48|EDC3_XENLA'
p220
S'505'
p221
S'1/1'
p222
S'45.588'
p223
S'155'
p224
S'340'
p225
S'170'
p226
S'7'
S'36'
p227
S'363'
p228
S'168'
p229
S'504'
p230
S'3.13e-91'
p231
S'285'
p232
S'swissprot|Q5XH48|EDC3_XENLA Enhancer of mRNA-decapping protein 3 OS=Xenopus laevis (African clawed frog)'
p233
ttRp234
sS'104|m.24'
p235
g20
(g21
g22
(g235
S'906'
p236
S'swissprot|A2AWA9|RBGP1_MOUSE'
p237
S'1064'
p238
S'1/1'
p239
S'49.784'
p240
S'460'
p241
S'924'
p242
S'423'
p243
S'11'
p244
S'1'
S'895'
p245
S'136'
p246
S'1047'
p247
S'0.0'
p248
S'889'
p249
S'swissprot|A2AWA9|RBGP1_MOUSE Rab GTPase-activating protein 1 OS=Mus musculus (Mouse)'
p250
ttRp251
sS'108|m.29'
p252
g20
(g21
g22
(g252
S'447'
p253
S'swissprot|Q9Y305|ACOT9_HUMAN'
p254
S'439'
p255
S'1/1'
p256
S'46.409'
p257
S'168'
p258
S'362'
p259
S'181'
p260
S'5'
S'76'
p261
S'435'
p262
S'73'
p263
S'423'
p264
S'9.28e-103'
p265
S'316'
p266
S'swissprot|Q9Y305|ACOT9_HUMAN Acyl-coenzyme A thioesterase 9, mitochondrial OS=Homo sapiens (Human)'
p267
ttRp268
sS'94|m.3'
p269
g20
(g21
g22
(g269
S'313'
p270
S'swissprot|Q9GRC0|MOS_PATPE'
p271
S'351'
p272
S'1/1'
p273
S'49.438'
p274
S'132'
p275
S'267'
p276
S'127'
p277
S'5'
S'44'
p278
S'309'
p279
S'71'
p280
S'330'
p281
S'7.69e-82'
p282
S'254'
p283
S'swissprot|Q9GRC0|MOS_PATPE Serine/threonine-protein kinase mos {ECO:0000250|UniProtKB:P10741} OS=Patiria pectinifera (Starfish) (Asterina pectinifera)'
p284
ttRp285
sS'105|m.25'
p286
g20
(g21
g22
(g286
S'294'
p287
S'swissprot|Q9GRC0|MOS_PATPE'
p288
S'351'
p289
S'1/1'
p290
S'45.756'
p291
S'124'
p292
S'271'
p293
S'128'
p294
S'6'
S'14'
p295
S'282'
p296
S'73'
p297
S'326'
p298
S'9.47e-72'
p299
S'228'
p300
S'swissprot|Q9GRC0|MOS_PATPE Serine/threonine-protein kinase mos {ECO:0000250|UniProtKB:P10741} OS=Patiria pectinifera (Starfish) (Asterina pectinifera)'
p301
ttRp302
sS'102|m.21'
p303
g20
(g21
g22
(g303
S'260'
p304
S'swissprot|Q9GRC0|MOS_PATPE'
p305
S'351'
p306
S'1/1'
p307
S'49.811'
p308
S'132'
p309
S'265'
p310
S'125'
p311
S'5'
S'1'
S'260'
p312
S'69'
p313
S'330'
p314
S'6.32e-85'
p315
S'260'
p316
S'swissprot|Q9GRC0|MOS_PATPE Serine/threonine-protein kinase mos {ECO:0000250|UniProtKB:P10741} OS=Patiria pectinifera (Starfish) (Asterina pectinifera)'
p317
ttRp318
ssg12
g13
sg3
S'7'
sg14
g15
sg5
g6
sg9
g10
sg7
g8
sg4
Nsa(dp319
g17
(dp320
g19
g20
(g21
g22
(g19
g23
g24
g25
g26
g27
g28
g29
g30
S'4'
S'9'
g31
g32
g33
g34
g35
g36
ttRp321
sg38
g20
(g21
g22
(g38
g39
g40
g41
g42
g43
g44
g45
g46
S'0'
S'2'
g47
g48
g49
g50
g51
g52
ttRp322
sg54
g20
(g21
g22
(g54
g55
g56
g57
g58
g59
g60
g61
g62
S'0'
g63
g64
g65
g66
g67
g68
g69
ttRp323
sg71
g20
(g21
g22
(g71
g72
g73
g74
g75
g76
g77
g78
g79
S'1'
S'1'
g80
g81
g82
g83
g84
g85
ttRp324
sg87
g20
(g21
g22
(g87
g88
g89
g90
g91
g92
g93
g94
g95
S'0'
S'1'
g96
g97
g98
g99
g100
g101
ttRp325
sg103
g20
(g21
g22
(g103
g104
g105
g106
g107
g108
g109
g110
g111
S'5'
g112
g113
g114
g115
g116
g117
g118
ttRp326
sg120
g20
(g21
g22
(g120
g121
g122
g123
g124
g125
g126
g127
g128
S'4'
S'2'
g129
g130
g131
g132
g133
g134
ttRp327
sg136
g20
(g21
g22
(g136
g137
g138
g139
g140
g141
g142
g143
g144
S'4'
S'4'
g145
S'8'
g146
g147
g148
g149
ttRp328
sg151
g20
(g21
g22
(g151
g152
g153
g154
g155
g156
g157
g158
g159
S'3'
S'2'
g160
g161
g162
g163
g164
g165
ttRp329
sg167
g20
(g21
g22
(g167
g168
g169
g170
g171
g172
g173
g174
g175
g176
g177
g178
g179
g180
g181
g182
g183
ttRp330
sg185
g20
(g21
g22
(g185
g186
g187
g188
g189
g190
g191
g192
g193
S'3'
S'1'
g194
g195
g196
g197
g198
g199
ttRp331
sg201
g20
(g21
g22
(g201
g202
g203
g204
g205
g206
g207
g208
g209
S'6'
g210
g211
g212
g213
g214
g215
g216
ttRp332
sg218
g20
(g21
g22
(g218
g219
g220
g221
g222
g223
g224
g225
g226
S'7'
g227
g228
g229
g230
g231
g232
g233
ttRp333
sg235
g20
(g21
g22
(g235
g236
g237
g238
g239
g240
g241
g242
g243
g244
S'1'
g245
g246
g247
g248
g249
g250
ttRp334
sg252
g20
(g21
g22
(g252
g253
g254
g255
g256
g257
g258
g259
g260
S'5'
g261
g262
g263
g264
g265
g266
g267
ttRp335
sg269
g20
(g21
g22
(g269
g270
g271
g272
g273
g274
g275
g276
g277
S'5'
g278
g279
g280
g281
g282
g283
g284
ttRp336
sg286
g20
(g21
g22
(g286
g287
g288
g289
g290
g291
g292
g293
g294
S'6'
g295
g296
g297
g298
g299
g300
g301
ttRp337
sg303
g20
(g21
g22
(g303
g304
g305
g306
g307
g308
g309
g310
g311
S'5'
S'1'
g312
g313
g314
g315
g316
g317
ttRp338
ssg12
g13
sg3
S'7'
sg14
g15
sg5
g6
sg9
g10
sg7
g8
sg4
Nsa.