(lp1
(dp2
S'min_length'
p3
I300
sS'assemble_nreads'
p4
I0
sS'subsets'
p5
(lp6
I1000
aI2500
aI5000
aI10000
aI25000
aI50000
aI100000
asS'ss'
p7
NsS'_run_id'
p8
S'1'
sS'fastq'
p9
NsS'quality'
p10
I33
sS'chkfile'
p11
S'transcriptome.chk'
p12
sS'seed'
p13
NsS'_data_sources'
p14
(lp15
sS'nreads'
p16
I100000
sS'gzip'
p17
I00
sS'assemble_quality'
p18
I33
sS'data'
p19
(lp20
(lp21
V/gpfs/scratch/aguang/treeinform/ms_treeinform/data/revisions/trinity/data/SRX288276_1.fq
p22
aV/gpfs/scratch/aguang/treeinform/ms_treeinform/data/revisions/trinity/data/SRX288276_2.fq
p23
aasS'id'
p24
S'SRX288276'
p25
sS'previous'
p26
I00
sa(dp27
S'subset'
p28
(lp29
S'subset.0.fq'
p30
aS'subset.1.fq'
p31
asg3
I300
sS'assembly'
p32
S'trinity_100000.Trinity.fasta'
p33
sg4
I0
sg5
(lp34
I1000
aI2500
aI5000
aI10000
aI25000
aI50000
aI100000
asg7
Nsg8
S'1'
sg9
Nsg10
I33
sg11
g12
sg13
Nsg14
(lp35
sg16
I100000
sg17
I00
sg18
I33
sg19
(lp36
(lp37
g22
ag23
aasg24
g25
sg26
I00
sa(dp38
g28
(lp39
g30
ag31
asg3
I300
sg32
g33
sg4
I0
sg5
(lp40
I1000
aI2500
aI5000
aI10000
aI25000
aI50000
aI100000
asg7
Nsg8
S'1'
sg9
Nsg10
I33
sg11
g12
sg13
Nsg14
(lp41
sg16
I100000
sg17
I00
sg18
I33
sg19
(lp42
(lp43
g22
ag23
aasg24
g25
sg26
I00
sa(dp44
g28
(lp45
g30
ag31
asg3
I300
sg32
g33
sg4
I0
sg5
(lp46
I1000
aI2500
aI5000
aI10000
aI25000
aI50000
aI100000
asg7
Nsg8
S'1'
sg9
Nsg10
I33
sg11
g12
sg13
Nsg14
(lp47
sg16
I100000
sg17
I00
sS'transcripts'
p48
S'/gpfs/scratch/aguang/treeinform/ms_treeinform/data/revisions/trinity/scratch/transcriptome-1/trinity.all.fa'
p49
sg26
I00
sg19
(lp50
(lp51
g22
ag23
aasg24
g25
sg18
I33
sa(dp52
g28
(lp53
g30
ag31
asg3
I300
sg32
g33
sg4
I0
sg5
(lp54
I1000
aI2500
aI5000
aI10000
aI25000
aI50000
aI100000
asg7
Nsg8
S'1'
sg9
Nsg10
I33
sg11
g12
sS'blast_xml'
p55
S'rrna.xml'
p56
sg13
Nsg14
(lp57
sg16
I100000
sg17
I00
sg48
g49
sg26
I00
sg19
(lp58
(lp59
g22
ag23
aasg24
g25
sg18
I33
sa(dp60
g28
(lp61
g30
ag31
asg3
I300
sg32
g33
sg4
I0
sg5
(lp62
I1000
aI2500
aI5000
aI10000
aI25000
aI50000
aI100000
asg7
Nsg8
S'1'
sg9
Nsg10
I33
sg11
g12
sg55
g56
sg13
NsS'exemplars_fasta'
p63
Nsg14
(lp64
sg16
I100000
sg17
I00
sg48
g49
sg26
I00
sg19
(lp65
(lp66
g22
ag23
aasg24
g25
sg18
I33
sa(dp67
g28
(lp68
g30
ag31
asg9
Nsg13
Nsg18
I33
sg10
I33
sg24
g25
sg26
I00
sg55
g56
sg32
g33
sg4
I0
sg8
S'1'
sg63
Nsg14
(lp69
sg16
I100000
sg19
(lp70
(lp71
g22
ag23
aasg3
I300
sg5
(lp72
I1000
aI2500
aI5000
aI10000
aI25000
aI50000
aI100000
asg7
NsS'ids'
p73
Nsg11
g12
sg17
I00
sg48
g49
sa(dp74
g28
(lp75
g30
ag31
asS'scratch'
p76
S'/gpfs/scratch/aguang/treeinform/ms_treeinform/data/revisions/trinity/scratch/transcriptome-1'
p77
sg9
Nsg13
Nsg18
I33
sg10
I33
sg24
g25
sg26
I00
sg55
g56
sg32
g33
sg4
I0
sg8
S'1'
sg63
Nsg14
(lp78
sg16
I100000
sg19
(lp79
(lp80
g22
ag23
aasg3
I300
sg5
(lp81
I1000
aI2500
aI5000
aI10000
aI25000
aI50000
aI100000
asg7
Nsg73
Nsg11
g12
sg17
I00
sg48
g49
sa(dp82
g28
(lp83
g30
ag31
asg76
g77
sg9
Nsg13
Nsg18
I33
sg10
I33
sg24
g25
sg26
I00
sg55
g56
sg32
g33
sg4
I0
sg8
S'1'
sg63
Nsg14
(lp84
sg16
I0
sg19
(lp85
(lp86
g22
ag23
aasg3
I300
sg5
(lp87
I1000
aI2500
aI5000
aI10000
aI25000
aI50000
aI100000
asg7
Nsg73
Nsg11
g12
sg17
I00
sg48
g49
sa(dp88
g28
(lp89
g30
ag31
asg76
g77
sg9
Nsg13
Nsg18
I33
sg10
I33
sg24
g25
sg26
I00
sg55
g56
sg32
g33
sg4
I0
sg8
S'1'
sg63
Nsg14
(lp90
sg16
I0
sg19
(lp91
(lp92
g22
ag23
aasg3
I300
sg5
(lp93
I1000
aI2500
aI5000
aI10000
aI25000
aI50000
aI100000
asS'rrna_id'
p94
Nsg7
Nsg73
Nsg11
g12
sg17
I00
sg48
g49
sa(dp95
g28
(lp96
g30
ag31
asg76
g77
sg9
Nsg13
Nsg18
I33
sg10
I33
sg24
g25
sg26
I00
sg55
g56
sg32
g33
sg4
I0
sg8
S'1'
sg63
Nsg14
(lp97
sg16
I0
sg19
(lp98
(lp99
g22
ag23
aa(lp100
S'filtered.0.fq'
p101
aS'filtered.1.fq'
p102
aasg3
I300
sg5
(lp103
I1000
aI2500
aI5000
aI10000
aI25000
aI50000
aI100000
asg94
Nsg7
Nsg73
Nsg11
g12
sg17
I00
sg48
g49
sa(dp104
g28
(lp105
g30
ag31
asg76
g77
sg9
Nsg13
Nsg18
I33
sg10
I33
sg24
g25
sg26
I00
sg55
g56
sg32
S'trinity_out_dir/Trinity.fasta'
p106
sg4
I0
sg8
S'1'
sg63
Nsg14
(lp107
sg16
I0
sg19
(lp108
(lp109
g22
ag23
aa(lp110
g101
ag102
aasg3
I300
sg5
(lp111
I1000
aI2500
aI5000
aI10000
aI25000
aI50000
aI100000
asg94
Nsg7
Nsg73
Nsg11
g12
sg17
I00
sg48
g49
sa(dp112
g28
(lp113
g30
ag31
asS'parsed_assembly'
p114
S'SRX288276.fa'
p115
sg76
g77
sg9
Nsg13
Nsg18
I33
sg10
I33
sg24
g25
sg26
I00
sg55
g56
sg32
g106
sg4
I0
sg8
S'1'
sg63
Nsg14
(lp116
sg16
I0
sg19
(lp117
(lp118
g22
ag23
aa(lp119
g101
ag102
aasg3
I300
sg5
(lp120
I1000
aI2500
aI5000
aI10000
aI25000
aI50000
aI100000
asg94
Nsg7
Nsg73
Nsg11
g12
sg17
I00
sg48
g49
sa(dp121
g28
(lp122
g30
ag31
asg114
g115
sg76
g77
sg9
Nsg13
Nsg18
I33
sg10
I33
sg24
g25
sg26
I00
sg55
g56
sg32
g106
sg4
I0
sg8
S'1'
sg63
Nsg14
(lp123
sg16
I0
sg19
(lp124
(lp125
g22
ag23
aa(lp126
g101
ag102
aasg3
I300
sg5
(lp127
I1000
aI2500
aI5000
aI10000
aI25000
aI50000
aI100000
asg94
Nsg7
Nsg73
Nsg11
g12
sg17
I00
sg48
g49
sa(dp128
g28
(lp129
g30
ag31
asg114
g115
sg76
g77
sg9
Nsg13
Nsg18
I33
sg10
I33
sg24
g25
sg26
I00
sg55
g56
sg32
g106
sg4
I0
sg8
S'1'
sg63
Nsg14
(lp130
sg16
I0
sg19
(lp131
(lp132
g22
ag23
aa(lp133
g101
ag102
aasg3
I300
sg5
(lp134
I1000
aI2500
aI5000
aI10000
aI25000
aI50000
aI100000
asg94
Nsg7
Nsg73
Nsg11
g12
sg17
I00
sg48
g49
sa(dp135
g28
(lp136
g30
ag31
asg114
g115
sg76
g77
sg9
NsS'scores'
p137
S'rsem_eval.score.isoforms.results'
p138
sg13
Nsg18
I33
sg10
I33
sg24
g25
sg26
I00
sg55
g56
sg32
g106
sg4
I0
sg8
S'1'
sg63
Nsg14
(lp139
sg16
I0
sg19
(lp140
(lp141
g22
ag23
aa(lp142
g101
ag102
aasg3
I300
sg5
(lp143
I1000
aI2500
aI5000
aI10000
aI25000
aI50000
aI100000
asg94
Nsg7
Nsg73
Nsg11
g12
sg17
I00
sg48
g49
sa(dp144
g28
(lp145
g30
ag31
asg114
g115
sg76
g77
sg9
Nsg137
g138
sg13
Nsg18
I33
sg10
I33
sg24
g25
sg26
I00
sg55
g56
sg32
g106
sg4
I0
sg8
S'1'
sg63
Nsg14
(lp146
sg16
I0
sg19
(lp147
(lp148
g22
ag23
aa(lp149
g101
ag102
aasg3
I300
sg5
(lp150
I1000
aI2500
aI5000
aI10000
aI25000
aI50000
aI100000
asg94
Nsg7
Nsg73
Nsg11
g12
sg17
I00
sg48
g49
sa(dp151
g28
(lp152
g30
ag31
asg114
g115
sg76
g77
sg9
Nsg137
g138
sg13
NsS'sequences'
p153
S'SRX288276.fa'
p154
sg18
I33
sg10
I33
sg24
g25
sg26
I00
sg55
g56
sg32
g106
sg4
I0
sg8
S'1'
sg63
Nsg14
(lp155
sg16
I0
sg19
(lp156
(lp157
g22
ag23
aa(lp158
g101
ag102
aasg3
I300
sg5
(lp159
I1000
aI2500
aI5000
aI10000
aI25000
aI50000
aI100000
asg94
Nsg7
Nsg73
Nsg11
g12
sg17
I00
sg48
g49
sa(dp160
g28
(lp161
g30
ag31
asg114
g115
sg76
g77
sg9
Nsg137
g138
sg13
Nsg153
g154
sg18
I33
sg10
I33
sg24
g25
sg26
I00
sS'orfs'
p162
S'SRX288276.fa.transdecoder_dir/longest_orfs.pep'
p163
sg55
g56
sg32
g106
sg4
I0
sg8
S'1'
sg63
Nsg14
(lp164
sg16
I0
sS'cds'
p165
S'SRX288276.fa.transdecoder_dir/longest_orfs.cds'
p166
sg19
(lp167
(lp168
g22
ag23
aa(lp169
g101
ag102
aasg3
I300
sg5
(lp170
I1000
aI2500
aI5000
aI10000
aI25000
aI50000
aI100000
asg94
Nsg7
Nsg73
Nsg11
g12
sg17
I00
sg48
g49
sa(dp171
g28
(lp172
g30
ag31
asg114
g115
sg76
g77
sg9
Nsg137
g138
sg13
Nsg153
g154
sg18
I33
sg10
I33
sg24
g25
sg26
I00
sg162
g163
sg55
g56
sg32
g106
sg4
I0
sg8
S'1'
sg63
Nsg14
(lp173
sg16
I0
sg165
g166
sg19
(lp174
(lp175
g22
ag23
aa(lp176
g101
ag102
aasg3
I300
sS'hits'
p177
(dp178
S'13|m.21'
p179
ccopy_reg
_reconstructor
p180
(cbiolite.workflows.blast
TabularHit
p181
c__builtin__
tuple
p182
(g179
S'558'
p183
S'swissprot|Q95QW4|CDF1_CAEEL'
p184
S'561'
p185
S'1/1'
p186
S'29.724'
p187
S'140'
p188
S'471'
p189
S'255'
p190
S'13'
p191
S'62'
p192
S'523'
p193
S'123'
p194
S'526'
p195
S'3.89e-49'
p196
S'181'
p197
S'swissprot|Q95QW4|CDF1_CAEEL Cation diffusion facilitator family protein 1 OS=Caenorhabditis elegans'
p198
ttRp199
sS'8|m.13'
p200
g180
(g181
g182
(g200
S'458'
p201
S'swissprot|Q0V989|CC85C_XENTR'
p202
S'391'
p203
S'1/1'
p204
S'46.667'
p205
S'63'
p206
S'135'
p207
S'72'
p208
S'0'
S'114'
p209
S'248'
p210
S'29'
p211
S'163'
p212
S'3.64e-37'
p213
S'143'
p214
S'swissprot|Q0V989|CC85C_XENTR Coiled-coil domain-containing protein 85C OS=Xenopus tropicalis (Western clawed frog) (Silurana tropicalis)'
p215
ttRp216
sS'3|m.4'
p217
g180
(g181
g182
(g217
S'592'
p218
S'swissprot|Q3UVU3|ZNT10_MOUSE'
p219
S'470'
p220
S'1/1'
p221
S'35.853'
p222
S'166'
p223
S'463'
p224
S'233'
p225
S'11'
p226
S'4'
S'459'
p227
S'6'
S'411'
p228
S'4.37e-78'
p229
S'258'
p230
S'swissprot|Q3UVU3|ZNT10_MOUSE Zinc transporter 10 OS=Mus musculus (Mouse)'
p231
ttRp232
sS'19|m.31'
p233
g180
(g181
g182
(g233
S'333'
p234
S'swissprot|Q9GRC0|MOS_PATPE'
p235
S'351'
p236
S'1/1'
p237
S'46.269'
p238
S'124'
p239
S'268'
p240
S'135'
p241
S'5'
S'42'
p242
S'308'
p243
S'71'
p244
S'330'
p245
S'7.09e-75'
p246
S'237'
p247
S'swissprot|Q9GRC0|MOS_PATPE Serine/threonine-protein kinase mos {ECO:0000250|UniProtKB:P10741} OS=Patiria pectinifera (Starfish) (Asterina pectinifera)'
p248
ttRp249
sS'10|m.17'
p250
g180
(g181
g182
(g250
S'458'
p251
S'swissprot|Q0V989|CC85C_XENTR'
p252
S'391'
p253
S'1/1'
p254
S'46.667'
p255
S'63'
p256
S'135'
p257
S'72'
p258
S'0'
S'114'
p259
S'248'
p260
S'29'
p261
S'163'
p262
S'3.64e-37'
p263
S'143'
p264
S'swissprot|Q0V989|CC85C_XENTR Coiled-coil domain-containing protein 85C OS=Xenopus tropicalis (Western clawed frog) (Silurana tropicalis)'
p265
ttRp266
sS'5|m.8'
p267
g180
(g181
g182
(g267
S'165'
p268
S'swissprot|P46063|RECQ1_HUMAN'
p269
S'649'
p270
S'1/1'
p271
S'55.975'
p272
S'89'
p273
S'159'
p274
S'69'
p275
S'1'
S'6'
S'163'
p276
S'79'
p277
S'237'
p278
S'2.72e-58'
p279
S'195'
p280
S'swissprot|P46063|RECQ1_HUMAN ATP-dependent DNA helicase Q1 OS=Homo sapiens (Human)'
p281
ttRp282
sS'9|m.15'
p283
g180
(g181
g182
(g283
S'458'
p284
S'swissprot|Q0V989|CC85C_XENTR'
p285
S'391'
p286
S'1/1'
p287
S'46.667'
p288
S'63'
p289
S'135'
p290
S'72'
p291
S'0'
S'114'
p292
S'248'
p293
S'29'
p294
S'163'
p295
S'3.64e-37'
p296
S'143'
p297
S'swissprot|Q0V989|CC85C_XENTR Coiled-coil domain-containing protein 85C OS=Xenopus tropicalis (Western clawed frog) (Silurana tropicalis)'
p298
ttRp299
sS'2|m.3'
p300
g180
(g181
g182
(g300
S'320'
p301
S'swissprot|Q5S007|LRRK2_HUMAN'
p302
S'2527'
p303
S'1/1'
p304
S'29.439'
p305
S'63'
p306
S'214'
p307
S'136'
p308
S'6'
S'77'
p309
S'286'
p310
S'1518'
p311
S'1720'
p312
S'4.13e-28'
p313
S'118'
p314
S'swissprot|Q5S007|LRRK2_HUMAN Leucine-rich repeat serine/threonine-protein kinase 2 OS=Homo sapiens (Human)'
p315
ttRp316
sS'16|m.26'
p317
g180
(g181
g182
(g317
S'215'
p318
S'swissprot|A8KB59|CC153_DANRE'
p319
S'202'
p320
S'1/1'
p321
S'33.898'
p322
S'60'
p323
S'177'
p324
S'115'
p325
S'1'
S'36'
p326
S'212'
p327
S'26'
p328
S'200'
p329
S'8.20e-28'
p330
S'107'
p331
S'swissprot|A8KB59|CC153_DANRE Coiled-coil domain-containing protein 153 OS=Danio rerio (Zebrafish) (Brachydanio rerio)'
p332
ttRp333
sS'23|m.37'
p334
g180
(g181
g182
(g334
S'309'
p335
S'swissprot|Q8VC30|TKFC_MOUSE'
p336
S'578'
p337
S'1/1'
p338
S'36.928'
p339
S'113'
p340
S'306'
p341
S'179'
p342
S'6'
S'1'
S'299'
p343
S'271'
p344
S'569'
p345
S'2.58e-46'
p346
S'167'
p347
S'swissprot|Q8VC30|TKFC_MOUSE Triokinase/FMN cyclase {ECO:0000312|MGI:MGI:2385084} OS=Mus musculus (Mouse)'
p348
ttRp349
sS'14|m.23'
p350
g180
(g181
g182
(g350
S'558'
p351
S'swissprot|Q95QW4|CDF1_CAEEL'
p352
S'561'
p353
S'1/1'
p354
S'29.724'
p355
S'140'
p356
S'471'
p357
S'255'
p358
S'13'
p359
S'62'
p360
S'523'
p361
S'123'
p362
S'526'
p363
S'3.89e-49'
p364
S'181'
p365
S'swissprot|Q95QW4|CDF1_CAEEL Cation diffusion facilitator family protein 1 OS=Caenorhabditis elegans'
p366
ttRp367
sS'18|m.29'
p368
g180
(g181
g182
(g368
S'614'
p369
S'swissprot|P54132|BLM_HUMAN'
p370
S'1417'
p371
S'1/1'
p372
S'41.712'
p373
S'229'
p374
S'549'
p375
S'284'
p376
S'13'
p377
S'1'
S'530'
p378
S'760'
p379
S'1291'
p380
S'6.02e-130'
p381
S'417'
p382
S'swissprot|P54132|BLM_HUMAN Bloom syndrome protein OS=Homo sapiens (Human)'
p383
ttRp384
sS'11|m.19'
p385
g180
(g181
g182
(g385
S'404'
p386
S'swissprot|Q502M5|EDC3_DANRE'
p387
S'507'
p388
S'1/1'
p389
S'32.701'
p390
S'138'
p391
S'422'
p392
S'240'
p393
S'14'
p394
S'9'
S'404'
p395
S'5'
S'408'
p396
S'1.84e-55'
p397
S'193'
p398
S'swissprot|Q502M5|EDC3_DANRE Enhancer of mRNA-decapping protein 3 OS=Danio rerio (Zebrafish) (Brachydanio rerio)'
p399
ttRp400
sS'7|m.11'
p401
g180
(g181
g182
(g401
S'458'
p402
S'swissprot|Q0V989|CC85C_XENTR'
p403
S'391'
p404
S'1/1'
p405
S'46.667'
p406
S'63'
p407
S'135'
p408
S'72'
p409
S'0'
S'114'
p410
S'248'
p411
S'29'
p412
S'163'
p413
S'3.64e-37'
p414
S'143'
p415
S'swissprot|Q0V989|CC85C_XENTR Coiled-coil domain-containing protein 85C OS=Xenopus tropicalis (Western clawed frog) (Silurana tropicalis)'
p416
ttRp417
sS'6|m.9'
p418
g180
(g181
g182
(g418
S'239'
p419
S'swissprot|Q6AYJ1|RECQ1_RAT'
p420
S'621'
p421
S'1/1'
p422
S'46.753'
p423
S'108'
p424
S'231'
p425
S'117'
p426
S'1'
S'12'
p427
S'236'
p428
S'6'
S'236'
p429
S'2.09e-70'
p430
S'229'
p431
S'swissprot|Q6AYJ1|RECQ1_RAT ATP-dependent DNA helicase Q1 OS=Rattus norvegicus (Rat)'
p432
ttRp433
sS'1|m.1'
p434
g180
(g181
g182
(g434
S'303'
p435
S'swissprot|Q9DEY9|BLM_XENLA'
p436
S'1364'
p437
S'1/1'
p438
S'31.439'
p439
S'83'
p440
S'264'
p441
S'164'
p442
S'7'
S'1'
S'260'
p443
S'989'
p444
S'1239'
p445
S'1.97e-34'
p446
S'135'
p447
S'swissprot|Q9DEY9|BLM_XENLA Bloom syndrome protein homolog OS=Xenopus laevis (African clawed frog)'
p448
ttRp449
sS'15|m.25'
p450
g180
(g181
g182
(g450
S'647'
p451
S'swissprot|O88700|BLM_MOUSE'
p452
S'1416'
p453
S'1/1'
p454
S'53.846'
p455
S'63'
p456
S'117'
p457
S'54'
p458
S'0'
S'531'
p459
S'647'
p460
S'656'
p461
S'772'
p462
S'1.85e-29'
p463
S'128'
p464
S'swissprot|O88700|BLM_MOUSE Bloom syndrome protein homolog OS=Mus musculus (Mouse)'
p465
ttRp466
sS'4|m.5'
p467
g180
(g181
g182
(g467
S'279'
p468
S'swissprot|O75525|KHDR3_HUMAN'
p469
S'346'
p470
S'1/1'
p471
S'36.066'
p472
S'66'
p473
S'183'
p474
S'109'
p475
S'4'
S'21'
p476
S'200'
p477
S'2'
S'179'
p478
S'1.44e-23'
p479
S'101'
p480
S'swissprot|O75525|KHDR3_HUMAN KH domain-containing, RNA-binding, signal transduction-associated protein 3 OS=Homo sapiens (Human)'
p481
ttRp482
sS'20|m.33'
p483
g180
(g181
g182
(g483
S'352'
p484
S'swissprot|O88700|BLM_MOUSE'
p485
S'1416'
p486
S'1/1'
p487
S'58.559'
p488
S'130'
p489
S'222'
p490
S'92'
p491
S'0'
S'127'
p492
S'348'
p493
S'656'
p494
S'877'
p495
S'1.99e-82'
p496
S'276'
p497
S'swissprot|O88700|BLM_MOUSE Bloom syndrome protein homolog OS=Mus musculus (Mouse)'
p498
ttRp499
sS'21|m.34'
p500
g180
(g181
g182
(g500
S'352'
p501
S'swissprot|O88700|BLM_MOUSE'
p502
S'1416'
p503
S'1/1'
p504
S'58.559'
p505
S'130'
p506
S'222'
p507
S'92'
p508
S'0'
S'127'
p509
S'348'
p510
S'656'
p511
S'877'
p512
S'1.73e-82'
p513
S'276'
p514
S'swissprot|O88700|BLM_MOUSE Bloom syndrome protein homolog OS=Mus musculus (Mouse)'
p515
ttRp516
sS'22|m.35'
p517
g180
(g181
g182
(g517
S'240'
p518
S'swissprot|Q9Z129|RECQ1_MOUSE'
p519
S'648'
p520
S'1/1'
p521
S'57.083'
p522
S'137'
p523
S'240'
p524
S'103'
p525
S'0'
S'1'
S'240'
p526
S'230'
p527
S'469'
p528
S'2.39e-92'
p529
S'287'
p530
S'swissprot|Q9Z129|RECQ1_MOUSE ATP-dependent DNA helicase Q1 OS=Mus musculus (Mouse)'
p531
ttRp532
sS'17|m.27'
p533
g180
(g181
g182
(g533
S'536'
p534
S'swissprot|P54132|BLM_HUMAN'
p535
S'1417'
p536
S'1/1'
p537
S'40.977'
p538
S'218'
p539
S'532'
p540
S'278'
p541
S'13'
p542
S'1'
S'513'
p543
S'777'
p544
S'1291'
p545
S'2.05e-121'
p546
S'391'
p547
S'swissprot|P54132|BLM_HUMAN Bloom syndrome protein OS=Homo sapiens (Human)'
p548
ttRp549
ssg5
(lp550
I1000
aI2500
aI5000
aI10000
aI25000
aI50000
aI100000
asg94
Nsg7
Nsg73
Nsg11
g12
sg17
I00
sg48
g49
sa(dp551
g28
(lp552
g30
ag31
asg114
g115
sg76
g77
sg9
Nsg137
g138
sg13
Nsg153
g154
sg18
I33
sg10
I33
sg24
g25
sg26
I00
sg162
g163
sg55
g56
sg32
g106
sg4
I0
sg8
S'1'
sg63
Nsg14
(lp553
sg16
I0
sg165
g166
sg19
(lp554
(lp555
g22
ag23
aa(lp556
g101
ag102
aasg3
I300
sg177
(dp557
g179
g180
(g181
g182
(g179
g183
g184
g185
g186
g187
g188
g189
g190
g191
g192
g193
g194
g195
g196
g197
g198
ttRp558
sg200
g180
(g181
g182
(g200
g201
g202
g203
g204
g205
g206
g207
g208
S'0'
g209
g210
g211
g212
g213
g214
g215
ttRp559
sg217
g180
(g181
g182
(g217
g218
g219
g220
g221
g222
g223
g224
g225
g226
S'4'
g227
S'6'
g228
g229
g230
g231
ttRp560
sg233
g180
(g181
g182
(g233
g234
g235
g236
g237
g238
g239
g240
g241
S'5'
g242
g243
g244
g245
g246
g247
g248
ttRp561
sg250
g180
(g181
g182
(g250
g251
g252
g253
g254
g255
g256
g257
g258
S'0'
g259
g260
g261
g262
g263
g264
g265
ttRp562
sg267
g180
(g181
g182
(g267
g268
g269
g270
g271
g272
g273
g274
g275
S'1'
S'6'
g276
g277
g278
g279
g280
g281
ttRp563
sg283
g180
(g181
g182
(g283
g284
g285
g286
g287
g288
g289
g290
g291
S'0'
g292
g293
g294
g295
g296
g297
g298
ttRp564
sg300
g180
(g181
g182
(g300
g301
g302
g303
g304
g305
g306
g307
g308
S'6'
g309
g310
g311
g312
g313
g314
g315
ttRp565
sg317
g180
(g181
g182
(g317
g318
g319
g320
g321
g322
g323
g324
g325
S'1'
g326
g327
g328
g329
g330
g331
g332
ttRp566
sg334
g180
(g181
g182
(g334
g335
g336
g337
g338
g339
g340
g341
g342
S'6'
S'1'
g343
g344
g345
g346
g347
g348
ttRp567
sg350
g180
(g181
g182
(g350
g351
g352
g353
g354
g355
g356
g357
g358
g359
g360
g361
g362
g363
g364
g365
g366
ttRp568
sg368
g180
(g181
g182
(g368
g369
g370
g371
g372
g373
g374
g375
g376
g377
S'1'
g378
g379
g380
g381
g382
g383
ttRp569
sg385
g180
(g181
g182
(g385
g386
g387
g388
g389
g390
g391
g392
g393
g394
S'9'
g395
S'5'
g396
g397
g398
g399
ttRp570
sg401
g180
(g181
g182
(g401
g402
g403
g404
g405
g406
g407
g408
g409
S'0'
g410
g411
g412
g413
g414
g415
g416
ttRp571
sg418
g180
(g181
g182
(g418
g419
g420
g421
g422
g423
g424
g425
g426
S'1'
g427
g428
S'6'
g429
g430
g431
g432
ttRp572
sg434
g180
(g181
g182
(g434
g435
g436
g437
g438
g439
g440
g441
g442
S'7'
S'1'
g443
g444
g445
g446
g447
g448
ttRp573
sg450
g180
(g181
g182
(g450
g451
g452
g453
g454
g455
g456
g457
g458
S'0'
g459
g460
g461
g462
g463
g464
g465
ttRp574
sg467
g180
(g181
g182
(g467
g468
g469
g470
g471
g472
g473
g474
g475
S'4'
g476
g477
S'2'
g478
g479
g480
g481
ttRp575
sg483
g180
(g181
g182
(g483
g484
g485
g486
g487
g488
g489
g490
g491
S'0'
g492
g493
g494
g495
g496
g497
g498
ttRp576
sg500
g180
(g181
g182
(g500
g501
g502
g503
g504
g505
g506
g507
g508
S'0'
g509
g510
g511
g512
g513
g514
g515
ttRp577
sg517
g180
(g181
g182
(g517
g518
g519
g520
g521
g522
g523
g524
g525
S'0'
S'1'
g526
g527
g528
g529
g530
g531
ttRp578
sg533
g180
(g181
g182
(g533
g534
g535
g536
g537
g538
g539
g540
g541
g542
S'1'
g543
g544
g545
g546
g547
g548
ttRp579
ssg5
(lp580
I1000
aI2500
aI5000
aI10000
aI25000
aI50000
aI100000
asg94
Nsg7
Nsg73
Nsg11
g12
sg17
I00
sg48
g49
sa.