(lp1
(dp2
S'seq_type'
p3
S'nt'
p4
sS'paths'
p5
(lp6
V/gpfs/scratch/aguang/treeinform/ms_treeinform/data/revisions/trinity/data/Hydra_magnipapillata_rna.fa
p7
asS'annotated'
p8
I00
sS'_run_id'
p9
S'6'
sS'chkfile'
p10
S'import.chk'
p11
sS'id'
p12
S'NCBI_HYDMAG'
p13
sa(dp14
g3
g4
sg5
(lp15
g7
asg8
I00
sg9
S'6'
sg10
g11
sg12
g13
sa.