(lp1
(dp2
S'_run_id'
p3
S'10'
p4
sS'previous'
p5
NsS'id'
p6
S'NCBI_HYDMAG'
p7
sS'chkfile'
p8
S'annotate.chk'
p9
sS'sequences'
p10
S'NCBI_HYDMAG.fa'
p11
sa(dp12
g3
g4
sg5
Nsg6
g7
sg8
g9
sg10
g11
sa(dp13
g3
g4
sg5
Nsg6
g7
sg8
g9
sg10
g11
sa.