(lp1
(dp2
S'min_length'
p3
I300
sS'assemble_nreads'
p4
I0
sS'subsets'
p5
(lp6
I1000
aI2500
aI5000
aI10000
aI25000
aI50000
aI100000
asS'ss'
p7
NsS'_run_id'
p8
S'5'
sS'fastq'
p9
NsS'quality'
p10
I33
sS'chkfile'
p11
S'transcriptome.chk'
p12
sS'seed'
p13
NsS'_data_sources'
p14
(lp15
sS'nreads'
p16
I100000
sS'gzip'
p17
I00
sS'assemble_quality'
p18
I33
sS'data'
p19
(lp20
(lp21
V/gpfs/scratch/aguang/treeinform/ms_treeinform/data/revisions/trinity/data/SRX288432_1.fq
p22
aV/gpfs/scratch/aguang/treeinform/ms_treeinform/data/revisions/trinity/data/SRX288432_2.fq
p23
aasS'id'
p24
S'SRX288432'
p25
sS'previous'
p26
I00
sa(dp27
S'subset'
p28
(lp29
S'subset.0.fq'
p30
aS'subset.1.fq'
p31
asg3
I300
sS'assembly'
p32
S'trinity_100000.Trinity.fasta'
p33
sg4
I0
sg5
(lp34
I1000
aI2500
aI5000
aI10000
aI25000
aI50000
aI100000
asg7
Nsg8
S'5'
sg9
Nsg10
I33
sg11
g12
sg13
Nsg14
(lp35
sg16
I100000
sg17
I00
sg18
I33
sg19
(lp36
(lp37
g22
ag23
aasg24
g25
sg26
I00
sa(dp38
g28
(lp39
g30
ag31
asg3
I300
sg32
g33
sg4
I0
sg5
(lp40
I1000
aI2500
aI5000
aI10000
aI25000
aI50000
aI100000
asg7
Nsg8
S'5'
sg9
Nsg10
I33
sg11
g12
sg13
Nsg14
(lp41
sg16
I100000
sg17
I00
sg18
I33
sg19
(lp42
(lp43
g22
ag23
aasg24
g25
sg26
I00
sa(dp44
g28
(lp45
g30
ag31
asg3
I300
sg32
g33
sg4
I0
sg5
(lp46
I1000
aI2500
aI5000
aI10000
aI25000
aI50000
aI100000
asg7
Nsg8
S'5'
sg9
Nsg10
I33
sg11
g12
sg13
Nsg14
(lp47
sg16
I100000
sg17
I00
sS'transcripts'
p48
S'/gpfs/scratch/aguang/treeinform/ms_treeinform/data/revisions/trinity/scratch/transcriptome-5/trinity.all.fa'
p49
sg26
I00
sg19
(lp50
(lp51
g22
ag23
aasg24
g25
sg18
I33
sa(dp52
g28
(lp53
g30
ag31
asg3
I300
sg32
g33
sg4
I0
sg5
(lp54
I1000
aI2500
aI5000
aI10000
aI25000
aI50000
aI100000
asg7
Nsg8
S'5'
sg9
Nsg10
I33
sg11
g12
sS'blast_xml'
p55
S'rrna.xml'
p56
sg13
Nsg14
(lp57
sg16
I100000
sg17
I00
sg48
g49
sg26
I00
sg19
(lp58
(lp59
g22
ag23
aasg24
g25
sg18
I33
sa(dp60
g28
(lp61
g30
ag31
asg3
I300
sg32
g33
sg4
I0
sg5
(lp62
I1000
aI2500
aI5000
aI10000
aI25000
aI50000
aI100000
asg7
Nsg8
S'5'
sg9
Nsg10
I33
sg11
g12
sg55
g56
sg13
NsS'exemplars_fasta'
p63
Nsg14
(lp64
sg16
I100000
sg17
I00
sg48
g49
sg26
I00
sg19
(lp65
(lp66
g22
ag23
aasg24
g25
sg18
I33
sa(dp67
g28
(lp68
g30
ag31
asg9
Nsg13
Nsg18
I33
sg10
I33
sg24
g25
sg26
I00
sg55
g56
sg32
g33
sg4
I0
sg8
S'5'
sg63
Nsg14
(lp69
sg16
I100000
sg19
(lp70
(lp71
g22
ag23
aasg3
I300
sg5
(lp72
I1000
aI2500
aI5000
aI10000
aI25000
aI50000
aI100000
asg7
NsS'ids'
p73
Nsg11
g12
sg17
I00
sg48
g49
sa(dp74
g28
(lp75
g30
ag31
asS'scratch'
p76
S'/gpfs/scratch/aguang/treeinform/ms_treeinform/data/revisions/trinity/scratch/transcriptome-5'
p77
sg9
Nsg13
Nsg18
I33
sg10
I33
sg24
g25
sg26
I00
sg55
g56
sg32
g33
sg4
I0
sg8
S'5'
sg63
Nsg14
(lp78
sg16
I100000
sg19
(lp79
(lp80
g22
ag23
aasg3
I300
sg5
(lp81
I1000
aI2500
aI5000
aI10000
aI25000
aI50000
aI100000
asg7
Nsg73
Nsg11
g12
sg17
I00
sg48
g49
sa(dp82
g28
(lp83
g30
ag31
asg76
g77
sg9
Nsg13
Nsg18
I33
sg10
I33
sg24
g25
sg26
I00
sg55
g56
sg32
g33
sg4
I0
sg8
S'5'
sg63
Nsg14
(lp84
sg16
I0
sg19
(lp85
(lp86
g22
ag23
aasg3
I300
sg5
(lp87
I1000
aI2500
aI5000
aI10000
aI25000
aI50000
aI100000
asg7
Nsg73
Nsg11
g12
sg17
I00
sg48
g49
sa(dp88
g28
(lp89
g30
ag31
asg76
g77
sg9
Nsg13
Nsg18
I33
sg10
I33
sg24
g25
sg26
I00
sg55
g56
sg32
g33
sg4
I0
sg8
S'5'
sg63
Nsg14
(lp90
sg16
I0
sg19
(lp91
(lp92
g22
ag23
aasg3
I300
sg5
(lp93
I1000
aI2500
aI5000
aI10000
aI25000
aI50000
aI100000
asS'rrna_id'
p94
Nsg7
Nsg73
Nsg11
g12
sg17
I00
sg48
g49
sa(dp95
g28
(lp96
g30
ag31
asg76
g77
sg9
Nsg13
Nsg18
I33
sg10
I33
sg24
g25
sg26
I00
sg55
g56
sg32
g33
sg4
I0
sg8
S'5'
sg63
Nsg14
(lp97
sg16
I0
sg19
(lp98
(lp99
g22
ag23
aa(lp100
S'filtered.0.fq'
p101
aS'filtered.1.fq'
p102
aasg3
I300
sg5
(lp103
I1000
aI2500
aI5000
aI10000
aI25000
aI50000
aI100000
asg94
Nsg7
Nsg73
Nsg11
g12
sg17
I00
sg48
g49
sa(dp104
g28
(lp105
g30
ag31
asg76
g77
sg9
Nsg13
Nsg18
I33
sg10
I33
sg24
g25
sg26
I00
sg55
g56
sg32
S'trinity_out_dir/Trinity.fasta'
p106
sg4
I0
sg8
S'5'
sg63
Nsg14
(lp107
sg16
I0
sg19
(lp108
(lp109
g22
ag23
aa(lp110
g101
ag102
aasg3
I300
sg5
(lp111
I1000
aI2500
aI5000
aI10000
aI25000
aI50000
aI100000
asg94
Nsg7
Nsg73
Nsg11
g12
sg17
I00
sg48
g49
sa(dp112
g28
(lp113
g30
ag31
asS'parsed_assembly'
p114
S'SRX288432.fa'
p115
sg76
g77
sg9
Nsg13
Nsg18
I33
sg10
I33
sg24
g25
sg26
I00
sg55
g56
sg32
g106
sg4
I0
sg8
S'5'
sg63
Nsg14
(lp116
sg16
I0
sg19
(lp117
(lp118
g22
ag23
aa(lp119
g101
ag102
aasg3
I300
sg5
(lp120
I1000
aI2500
aI5000
aI10000
aI25000
aI50000
aI100000
asg94
Nsg7
Nsg73
Nsg11
g12
sg17
I00
sg48
g49
sa(dp121
g28
(lp122
g30
ag31
asg114
g115
sg76
g77
sg9
Nsg13
Nsg18
I33
sg10
I33
sg24
g25
sg26
I00
sg55
g56
sg32
g106
sg4
I0
sg8
S'5'
sg63
Nsg14
(lp123
sg16
I0
sg19
(lp124
(lp125
g22
ag23
aa(lp126
g101
ag102
aasg3
I300
sg5
(lp127
I1000
aI2500
aI5000
aI10000
aI25000
aI50000
aI100000
asg94
Nsg7
Nsg73
Nsg11
g12
sg17
I00
sg48
g49
sa(dp128
g28
(lp129
g30
ag31
asg114
g115
sg76
g77
sg9
Nsg13
Nsg18
I33
sg10
I33
sg24
g25
sg26
I00
sg55
g56
sg32
g106
sg4
I0
sg8
S'5'
sg63
Nsg14
(lp130
sg16
I0
sg19
(lp131
(lp132
g22
ag23
aa(lp133
g101
ag102
aasg3
I300
sg5
(lp134
I1000
aI2500
aI5000
aI10000
aI25000
aI50000
aI100000
asg94
Nsg7
Nsg73
Nsg11
g12
sg17
I00
sg48
g49
sa(dp135
g28
(lp136
g30
ag31
asg114
g115
sg76
g77
sg9
NsS'scores'
p137
S'rsem_eval.score.isoforms.results'
p138
sg13
Nsg18
I33
sg10
I33
sg24
g25
sg26
I00
sg55
g56
sg32
g106
sg4
I0
sg8
S'5'
sg63
Nsg14
(lp139
sg16
I0
sg19
(lp140
(lp141
g22
ag23
aa(lp142
g101
ag102
aasg3
I300
sg5
(lp143
I1000
aI2500
aI5000
aI10000
aI25000
aI50000
aI100000
asg94
Nsg7
Nsg73
Nsg11
g12
sg17
I00
sg48
g49
sa(dp144
g28
(lp145
g30
ag31
asg114
g115
sg76
g77
sg9
Nsg137
g138
sg13
Nsg18
I33
sg10
I33
sg24
g25
sg26
I00
sg55
g56
sg32
g106
sg4
I0
sg8
S'5'
sg63
Nsg14
(lp146
sg16
I0
sg19
(lp147
(lp148
g22
ag23
aa(lp149
g101
ag102
aasg3
I300
sg5
(lp150
I1000
aI2500
aI5000
aI10000
aI25000
aI50000
aI100000
asg94
Nsg7
Nsg73
Nsg11
g12
sg17
I00
sg48
g49
sa(dp151
g28
(lp152
g30
ag31
asg114
g115
sg76
g77
sg9
Nsg137
g138
sg13
NsS'sequences'
p153
S'SRX288432.fa'
p154
sg18
I33
sg10
I33
sg24
g25
sg26
I00
sg55
g56
sg32
g106
sg4
I0
sg8
S'5'
sg63
Nsg14
(lp155
sg16
I0
sg19
(lp156
(lp157
g22
ag23
aa(lp158
g101
ag102
aasg3
I300
sg5
(lp159
I1000
aI2500
aI5000
aI10000
aI25000
aI50000
aI100000
asg94
Nsg7
Nsg73
Nsg11
g12
sg17
I00
sg48
g49
sa(dp160
g28
(lp161
g30
ag31
asg114
g115
sg76
g77
sg9
Nsg137
g138
sg13
Nsg153
g154
sg18
I33
sg10
I33
sg24
g25
sg26
I00
sS'orfs'
p162
S'SRX288432.fa.transdecoder_dir/longest_orfs.pep'
p163
sg55
g56
sg32
g106
sg4
I0
sg8
S'5'
sg63
Nsg14
(lp164
sg16
I0
sS'cds'
p165
S'SRX288432.fa.transdecoder_dir/longest_orfs.cds'
p166
sg19
(lp167
(lp168
g22
ag23
aa(lp169
g101
ag102
aasg3
I300
sg5
(lp170
I1000
aI2500
aI5000
aI10000
aI25000
aI50000
aI100000
asg94
Nsg7
Nsg73
Nsg11
g12
sg17
I00
sg48
g49
sa(dp171
g28
(lp172
g30
ag31
asg114
g115
sg76
g77
sg9
Nsg137
g138
sg13
Nsg153
g154
sg18
I33
sg10
I33
sg24
g25
sg26
I00
sg162
g163
sg55
g56
sg32
g106
sg4
I0
sg8
S'5'
sg63
Nsg14
(lp173
sg16
I0
sg165
g166
sg19
(lp174
(lp175
g22
ag23
aa(lp176
g101
ag102
aasg3
I300
sS'hits'
p177
(dp178
S'69|m.7'
p179
ccopy_reg
_reconstructor
p180
(cbiolite.workflows.blast
TabularHit
p181
c__builtin__
tuple
p182
(g179
S'450'
p183
S'swissprot|Q0V989|CC85C_XENTR'
p184
S'391'
p185
S'1/1'
p186
S'47.581'
p187
S'59'
p188
S'124'
p189
S'65'
p190
S'0'
S'109'
p191
S'232'
p192
S'29'
p193
S'152'
p194
S'1.10e-34'
p195
S'136'
p196
S'swissprot|Q0V989|CC85C_XENTR Coiled-coil domain-containing protein 85C OS=Xenopus tropicalis (Western clawed frog) (Silurana tropicalis)'
p197
ttRp198
sS'71|m.9'
p199
g180
(g181
g182
(g199
S'243'
p200
S'swissprot|Q9JLP1|KHDR3_RAT'
p201
S'346'
p202
S'1/1'
p203
S'34.783'
p204
S'64'
p205
S'184'
p206
S'117'
p207
S'3'
S'6'
S'188'
p208
S'2'
S'183'
p209
S'2.21e-23'
p210
S'99.8'
p211
S'swissprot|Q9JLP1|KHDR3_RAT KH domain-containing, RNA-binding, signal transduction-associated protein 3 OS=Rattus norvegicus (Rat)'
p212
ttRp213
sS'74|m.13'
p214
g180
(g181
g182
(g214
S'151'
p215
S'swissprot|P53665|ACPM1_ARATH'
p216
S'122'
p217
S'1/1'
p218
S'44.144'
p219
S'49'
p220
S'111'
p221
S'56'
p222
S'1'
S'40'
p223
S'144'
p224
S'5'
S'115'
p225
S'5.18e-22'
p226
S'87.8'
p227
S'swissprot|P53665|ACPM1_ARATH Acyl carrier protein 1, mitochondrial OS=Arabidopsis thaliana (Mouse-ear cress)'
p228
ttRp229
sS'76|m.15'
p230
g180
(g181
g182
(g230
S'1170'
p231
S'swissprot|Q9DEY9|BLM_XENLA'
p232
S'1364'
p233
S'1/1'
p234
S'44.678'
p235
S'340'
p236
S'761'
p237
S'392'
p238
S'11'
p239
S'421'
p240
S'1163'
p241
S'599'
p242
S'1348'
p243
S'0.0'
p244
S'626'
p245
S'swissprot|Q9DEY9|BLM_XENLA Bloom syndrome protein homolog OS=Xenopus laevis (African clawed frog)'
p246
ttRp247
sS'87|m.27'
p248
g180
(g181
g182
(g248
S'425'
p249
S'swissprot|Q6NYI0|HERP2_DANRE'
p250
S'397'
p251
S'1/1'
p252
S'33.034'
p253
S'147'
p254
S'445'
p255
S'213'
p256
S'16'
p257
S'2'
S'419'
p258
S'6'
S'392'
p259
S'3.75e-51'
p260
S'180'
p261
S'swissprot|Q6NYI0|HERP2_DANRE Homocysteine-responsive endoplasmic reticulum-resident ubiquitin-like domain member 2 protein OS=Danio rerio (Zebrafish) (Brachydanio rerio)'
p262
ttRp263
sS'78|m.18'
p264
g180
(g181
g182
(g264
S'317'
p265
S'swissprot|Q38SD2|LRRK1_HUMAN'
p266
S'2015'
p267
S'1/1'
p268
S'25.926'
p269
S'77'
p270
S'297'
p271
S'205'
p272
S'7'
S'1'
S'288'
p273
S'752'
p274
S'1042'
p275
S'1.88e-25'
p276
S'110'
p277
S'swissprot|Q38SD2|LRRK1_HUMAN Leucine-rich repeat serine/threonine-protein kinase 1 OS=Homo sapiens (Human)'
p278
ttRp279
sS'85|m.25'
p280
g180
(g181
g182
(g280
S'210'
p281
S'swissprot|Q5S007|LRRK2_HUMAN'
p282
S'2527'
p283
S'1/1'
p284
S'28.205'
p285
S'55'
p286
S'195'
p287
S'120'
p288
S'7'
S'25'
p289
S'210'
p290
S'1518'
p291
S'1701'
p292
S'1.23e-20'
p293
S'92.8'
p294
S'swissprot|Q5S007|LRRK2_HUMAN Leucine-rich repeat serine/threonine-protein kinase 2 OS=Homo sapiens (Human)'
p295
ttRp296
sS'68|m.6'
p297
g180
(g181
g182
(g297
S'149'
p298
S'swissprot|P52505|ACPM_BOVIN'
p299
S'156'
p300
S'1/1'
p301
S'40.187'
p302
S'43'
p303
S'107'
p304
S'57'
p305
S'2'
S'49'
p306
S'148'
p307
S'48'
p308
S'154'
p309
S'1.18e-20'
p310
S'85.5'
p311
S'swissprot|P52505|ACPM_BOVIN Acyl carrier protein, mitochondrial OS=Bos taurus (Bovine)'
p312
ttRp313
sS'86|m.26'
p314
g180
(g181
g182
(g314
S'184'
p315
S'swissprot|Q9DEY9|BLM_XENLA'
p316
S'1364'
p317
S'1/1'
p318
S'32.961'
p319
S'59'
p320
S'179'
p321
S'109'
p322
S'4'
S'2'
S'175'
p323
S'996'
p324
S'1168'
p325
S'1.76e-22'
p326
S'97.1'
p327
S'swissprot|Q9DEY9|BLM_XENLA Bloom syndrome protein homolog OS=Xenopus laevis (African clawed frog)'
p328
ttRp329
sS'83|m.23'
p330
g180
(g181
g182
(g330
S'334'
p331
S'swissprot|Q9GRC0|MOS_PATPE'
p332
S'351'
p333
S'1/1'
p334
S'48.872'
p335
S'130'
p336
S'266'
p337
S'130'
p338
S'5'
S'47'
p339
S'311'
p340
S'70'
p341
S'330'
p342
S'8.01e-83'
p343
S'257'
p344
S'swissprot|Q9GRC0|MOS_PATPE Serine/threonine-protein kinase mos {ECO:0000250|UniProtKB:P10741} OS=Patiria pectinifera (Starfish) (Asterina pectinifera)'
p345
ttRp346
sS'64|m.1'
p347
g180
(g181
g182
(g347
S'905'
p348
S'swissprot|Q6AYJ1|RECQ1_RAT'
p349
S'621'
p350
S'1/1'
p351
S'49.057'
p352
S'286'
p353
S'583'
p354
S'288'
p355
S'5'
S'15'
p356
S'590'
p357
S'10'
p358
S'590'
p359
S'0.0'
p360
S'581'
p361
S'swissprot|Q6AYJ1|RECQ1_RAT ATP-dependent DNA helicase Q1 OS=Rattus norvegicus (Rat)'
p362
ttRp363
sS'80|m.20'
p364
g180
(g181
g182
(g364
S'482'
p365
S'swissprot|Q6ZNA1|ZN836_HUMAN'
p366
S'936'
p367
S'1/1'
p368
S'28.289'
p369
S'129'
p370
S'456'
p371
S'251'
p372
S'13'
p373
S'39'
p374
S'466'
p375
S'452'
p376
S'859'
p377
S'3.05e-37'
p378
S'149'
p379
S'swissprot|Q6ZNA1|ZN836_HUMAN Zinc finger protein 836 OS=Homo sapiens (Human)'
p380
ttRp381
sS'90|m.30'
p382
g180
(g181
g182
(g382
S'196'
p383
S'swissprot|Q9R0X4|ACOT9_MOUSE'
p384
S'439'
p385
S'1/1'
p386
S'42.347'
p387
S'83'
p388
S'196'
p389
S'113'
p390
S'0'
S'1'
S'196'
p391
S'177'
p392
S'372'
p393
S'6.41e-51'
p394
S'172'
p395
S'swissprot|Q9R0X4|ACOT9_MOUSE Acyl-coenzyme A thioesterase 9, mitochondrial OS=Mus musculus (Mouse)'
p396
ttRp397
sS'65|m.3'
p398
g180
(g181
g182
(g398
S'525'
p399
S'swissprot|Q3UVU3|ZNT10_MOUSE'
p400
S'470'
p401
S'1/1'
p402
S'34.843'
p403
S'177'
p404
S'508'
p405
S'242'
p406
S'13'
p407
S'1'
S'484'
p408
S'1'
S'443'
p409
S'3.75e-83'
p410
S'269'
p411
S'swissprot|Q3UVU3|ZNT10_MOUSE Zinc transporter 10 OS=Mus musculus (Mouse)'
p412
ttRp413
sS'81|m.21'
p414
g180
(g181
g182
(g414
S'187'
p415
S'swissprot|Q2TL60|ZN667_MOUSE'
p416
S'609'
p417
S'1/1'
p418
S'36.364'
p419
S'32'
p420
S'88'
p421
S'55'
p422
S'1'
S'94'
p423
S'180'
p424
S'382'
p425
S'469'
p426
S'7.17e-11'
p427
S'63.5'
p428
S'swissprot|Q2TL60|ZN667_MOUSE Zinc finger protein 667 OS=Mus musculus (Mouse)'
p429
ttRp430
sS'66|m.4'
p431
g180
(g181
g182
(g431
S'202'
p432
S'swissprot|Q5FVL4|CC153_RAT'
p433
S'202'
p434
S'1/1'
p435
S'31.188'
p436
S'63'
p437
S'202'
p438
S'138'
p439
S'1'
S'1'
S'201'
p440
S'1'
S'202'
p441
S'1.75e-26'
p442
S'103'
p443
S'swissprot|Q5FVL4|CC153_RAT Coiled-coil domain-containing protein 153 OS=Rattus norvegicus (Rat)'
p444
ttRp445
sS'79|m.19'
p446
g180
(g181
g182
(g446
S'194'
p447
S'swissprot|Q9D995|CNTD1_MOUSE'
p448
S'334'
p449
S'1/1'
p450
S'29.319'
p451
S'56'
p452
S'191'
p453
S'125'
p454
S'3'
S'7'
S'187'
p455
S'111'
p456
S'301'
p457
S'1.89e-11'
p458
S'65.1'
p459
S'swissprot|Q9D995|CNTD1_MOUSE Cyclin N-terminal domain-containing protein 1 OS=Mus musculus (Mouse)'
p460
ttRp461
sS'77|m.17'
p462
g180
(g181
g182
(g462
S'1193'
p463
S'swissprot|Q9DEY9|BLM_XENLA'
p464
S'1364'
p465
S'1/1'
p466
S'44.689'
p467
S'345'
p468
S'772'
p469
S'398'
p470
S'11'
p471
S'433'
p472
S'1186'
p473
S'588'
p474
S'1348'
p475
S'0.0'
p476
S'637'
p477
S'swissprot|Q9DEY9|BLM_XENLA Bloom syndrome protein homolog OS=Xenopus laevis (African clawed frog)'
p478
ttRp479
sS'88|m.28'
p480
g180
(g181
g182
(g480
S'141'
p481
S'swissprot|Q4R6K2|ZNT1_MACFA'
p482
S'505'
p483
S'1/1'
p484
S'43.609'
p485
S'58'
p486
S'133'
p487
S'70'
p488
S'2'
S'1'
S'129'
p489
S'314'
p490
S'445'
p491
S'1.66e-30'
p492
S'117'
p493
S'swissprot|Q4R6K2|ZNT1_MACFA Zinc transporter 1 OS=Macaca fascicularis (Crab-eating macaque) (Cynomolgus monkey)'
p494
ttRp495
sS'72|m.10'
p496
g180
(g181
g182
(g496
S'190'
p497
S'swissprot|Q9Y305|ACOT9_HUMAN'
p498
S'439'
p499
S'1/1'
p500
S'39.437'
p501
S'56'
p502
S'142'
p503
S'75'
p504
S'4'
S'59'
p505
S'190'
p506
S'43'
p507
S'183'
p508
S'6.45e-23'
p509
S'97.8'
p510
S'swissprot|Q9Y305|ACOT9_HUMAN Acyl-coenzyme A thioesterase 9, mitochondrial OS=Homo sapiens (Human)'
p511
ttRp512
sS'70|m.8'
p513
g180
(g181
g182
(g513
S'974'
p514
S'swissprot|A2AWA9|RBGP1_MOUSE'
p515
S'1064'
p516
S'1/1'
p517
S'37.473'
p518
S'350'
p519
S'934'
p520
S'545'
p521
S'12'
p522
S'47'
p523
S'964'
p524
S'135'
p525
S'1045'
p526
S'0.0'
p527
S'619'
p528
S'swissprot|A2AWA9|RBGP1_MOUSE Rab GTPase-activating protein 1 OS=Mus musculus (Mouse)'
p529
ttRp530
sS'73|m.11'
p531
g180
(g181
g182
(g531
S'1175'
p532
S'swissprot|Q9DEY9|BLM_XENLA'
p533
S'1364'
p534
S'1/1'
p535
S'44.678'
p536
S'340'
p537
S'761'
p538
S'392'
p539
S'11'
p540
S'426'
p541
S'1168'
p542
S'599'
p543
S'1348'
p544
S'0.0'
p545
S'626'
p546
S'swissprot|Q9DEY9|BLM_XENLA Bloom syndrome protein homolog OS=Xenopus laevis (African clawed frog)'
p547
ttRp548
sS'84|m.24'
p549
g180
(g181
g182
(g549
S'275'
p550
S'swissprot|Q9VGI8|BLM_DROME'
p551
S'1487'
p552
S'1/1'
p553
S'57.971'
p554
S'160'
p555
S'276'
p556
S'115'
p557
S'1'
S'1'
S'275'
p558
S'835'
p559
S'1110'
p560
S'2.63e-109'
p561
S'348'
p562
S'swissprot|Q9VGI8|BLM_DROME Bloom syndrome protein homolog OS=Drosophila melanogaster (Fruit fly)'
p563
ttRp564
sS'67|m.5'
p565
g180
(g181
g182
(g565
S'514'
p566
S'swissprot|Q502M5|EDC3_DANRE'
p567
S'507'
p568
S'1/1'
p569
S'34.594'
p570
S'183'
p571
S'529'
p572
S'290'
p573
S'16'
p574
S'11'
p575
S'512'
p576
S'7'
S'506'
p577
S'2.19e-82'
p578
S'268'
p579
S'swissprot|Q502M5|EDC3_DANRE Enhancer of mRNA-decapping protein 3 OS=Danio rerio (Zebrafish) (Brachydanio rerio)'
p580
ttRp581
sS'82|m.22'
p582
g180
(g181
g182
(g582
S'219'
p583
S'swissprot|P20107|ZRC1_YEAST'
p584
S'442'
p585
S'1/1'
p586
S'47.399'
p587
S'82'
p588
S'173'
p589
S'86'
p590
S'2'
S'17'
p591
S'187'
p592
S'5'
S'174'
p593
S'1.62e-46'
p594
S'162'
p595
S"swissprot|P20107|ZRC1_YEAST Zinc/cadmium resistance protein OS=Saccharomyces cerevisiae (strain ATCC 204508 / S288c) (Baker's yeast)"
p596
ttRp597
sS'75|m.14'
p598
g180
(g181
g182
(g598
S'1052'
p599
S'swissprot|A2AWA9|RBGP1_MOUSE'
p600
S'1064'
p601
S'1/1'
p602
S'37.580'
p603
S'351'
p604
S'934'
p605
S'544'
p606
S'12'
p607
S'125'
p608
S'1042'
p609
S'135'
p610
S'1045'
p611
S'0.0'
p612
S'622'
p613
S'swissprot|A2AWA9|RBGP1_MOUSE Rab GTPase-activating protein 1 OS=Mus musculus (Mouse)'
p614
ttRp615
sS'89|m.29'
p616
g180
(g181
g182
(g616
S'147'
p617
S'swissprot|Q9R0X4|ACOT9_MOUSE'
p618
S'439'
p619
S'1/1'
p620
S'48.299'
p621
S'71'
p622
S'147'
p623
S'76'
p624
S'0'
S'1'
S'147'
p625
S'226'
p626
S'372'
p627
S'2.15e-45'
p628
S'156'
p629
S'swissprot|Q9R0X4|ACOT9_MOUSE Acyl-coenzyme A thioesterase 9, mitochondrial OS=Mus musculus (Mouse)'
p630
ttRp631
ssg5
(lp632
I1000
aI2500
aI5000
aI10000
aI25000
aI50000
aI100000
asg94
Nsg7
Nsg73
Nsg11
g12
sg17
I00
sg48
g49
sa(dp633
g28
(lp634
g30
ag31
asg114
g115
sg76
g77
sg9
Nsg137
g138
sg13
Nsg153
g154
sg18
I33
sg10
I33
sg24
g25
sg26
I00
sg162
g163
sg55
g56
sg32
g106
sg4
I0
sg8
S'5'
sg63
Nsg14
(lp635
sg16
I0
sg165
g166
sg19
(lp636
(lp637
g22
ag23
aa(lp638
g101
ag102
aasg3
I300
sg177
(dp639
g179
g180
(g181
g182
(g179
g183
g184
g185
g186
g187
g188
g189
g190
S'0'
g191
g192
g193
g194
g195
g196
g197
ttRp640
sg199
g180
(g181
g182
(g199
g200
g201
g202
g203
g204
g205
g206
g207
S'3'
S'6'
g208
S'2'
g209
g210
g211
g212
ttRp641
sg214
g180
(g181
g182
(g214
g215
g216
g217
g218
g219
g220
g221
g222
S'1'
g223
g224
S'5'
g225
g226
g227
g228
ttRp642
sg230
g180
(g181
g182
(g230
g231
g232
g233
g234
g235
g236
g237
g238
g239
g240
g241
g242
g243
g244
g245
g246
ttRp643
sg248
g180
(g181
g182
(g248
g249
g250
g251
g252
g253
g254
g255
g256
g257
S'2'
g258
S'6'
g259
g260
g261
g262
ttRp644
sg264
g180
(g181
g182
(g264
g265
g266
g267
g268
g269
g270
g271
g272
S'7'
S'1'
g273
g274
g275
g276
g277
g278
ttRp645
sg280
g180
(g181
g182
(g280
g281
g282
g283
g284
g285
g286
g287
g288
S'7'
g289
g290
g291
g292
g293
g294
g295
ttRp646
sg297
g180
(g181
g182
(g297
g298
g299
g300
g301
g302
g303
g304
g305
S'2'
g306
g307
g308
g309
g310
g311
g312
ttRp647
sg314
g180
(g181
g182
(g314
g315
g316
g317
g318
g319
g320
g321
g322
S'4'
S'2'
g323
g324
g325
g326
g327
g328
ttRp648
sg330
g180
(g181
g182
(g330
g331
g332
g333
g334
g335
g336
g337
g338
S'5'
g339
g340
g341
g342
g343
g344
g345
ttRp649
sg347
g180
(g181
g182
(g347
g348
g349
g350
g351
g352
g353
g354
g355
S'5'
g356
g357
g358
g359
g360
g361
g362
ttRp650
sg364
g180
(g181
g182
(g364
g365
g366
g367
g368
g369
g370
g371
g372
g373
g374
g375
g376
g377
g378
g379
g380
ttRp651
sg382
g180
(g181
g182
(g382
g383
g384
g385
g386
g387
g388
g389
g390
S'0'
S'1'
g391
g392
g393
g394
g395
g396
ttRp652
sg398
g180
(g181
g182
(g398
g399
g400
g401
g402
g403
g404
g405
g406
g407
S'1'
g408
S'1'
g409
g410
g411
g412
ttRp653
sg414
g180
(g181
g182
(g414
g415
g416
g417
g418
g419
g420
g421
g422
S'1'
g423
g424
g425
g426
g427
g428
g429
ttRp654
sg431
g180
(g181
g182
(g431
g432
g433
g434
g435
g436
g437
g438
g439
S'1'
S'1'
g440
S'1'
g441
g442
g443
g444
ttRp655
sg446
g180
(g181
g182
(g446
g447
g448
g449
g450
g451
g452
g453
g454
S'3'
S'7'
g455
g456
g457
g458
g459
g460
ttRp656
sg462
g180
(g181
g182
(g462
g463
g464
g465
g466
g467
g468
g469
g470
g471
g472
g473
g474
g475
g476
g477
g478
ttRp657
sg480
g180
(g181
g182
(g480
g481
g482
g483
g484
g485
g486
g487
g488
S'2'
S'1'
g489
g490
g491
g492
g493
g494
ttRp658
sg496
g180
(g181
g182
(g496
g497
g498
g499
g500
g501
g502
g503
g504
S'4'
g505
g506
g507
g508
g509
g510
g511
ttRp659
sg513
g180
(g181
g182
(g513
g514
g515
g516
g517
g518
g519
g520
g521
g522
g523
g524
g525
g526
g527
g528
g529
ttRp660
sg531
g180
(g181
g182
(g531
g532
g533
g534
g535
g536
g537
g538
g539
g540
g541
g542
g543
g544
g545
g546
g547
ttRp661
sg549
g180
(g181
g182
(g549
g550
g551
g552
g553
g554
g555
g556
g557
S'1'
S'1'
g558
g559
g560
g561
g562
g563
ttRp662
sg565
g180
(g181
g182
(g565
g566
g567
g568
g569
g570
g571
g572
g573
g574
g575
g576
S'7'
g577
g578
g579
g580
ttRp663
sg582
g180
(g181
g182
(g582
g583
g584
g585
g586
g587
g588
g589
g590
S'2'
g591
g592
S'5'
g593
g594
g595
g596
ttRp664
sg598
g180
(g181
g182
(g598
g599
g600
g601
g602
g603
g604
g605
g606
g607
g608
g609
g610
g611
g612
g613
g614
ttRp665
sg616
g180
(g181
g182
(g616
g617
g618
g619
g620
g621
g622
g623
g624
S'0'
S'1'
g625
g626
g627
g628
g629
g630
ttRp666
ssg5
(lp667
I1000
aI2500
aI5000
aI10000
aI25000
aI50000
aI100000
asg94
Nsg7
Nsg73
Nsg11
g12
sg17
I00
sg48
g49
sa.