(lp1
(dp2
S'min_length'
p3
I300
sS'assemble_nreads'
p4
I0
sS'subsets'
p5
(lp6
I1000
aI2500
aI5000
aI10000
aI25000
aI50000
aI100000
asS'ss'
p7
NsS'_run_id'
p8
S'4'
sS'fastq'
p9
NsS'quality'
p10
I33
sS'chkfile'
p11
S'transcriptome.chk'
p12
sS'seed'
p13
NsS'_data_sources'
p14
(lp15
sS'nreads'
p16
I100000
sS'gzip'
p17
I00
sS'assemble_quality'
p18
I33
sS'data'
p19
(lp20
(lp21
V/gpfs/scratch/aguang/treeinform/ms_treeinform/data/revisions/trinity/data/SRX288431_1.fq
p22
aV/gpfs/scratch/aguang/treeinform/ms_treeinform/data/revisions/trinity/data/SRX288431_2.fq
p23
aasS'id'
p24
S'SRX288431'
p25
sS'previous'
p26
I00
sa(dp27
S'subset'
p28
(lp29
S'subset.0.fq'
p30
aS'subset.1.fq'
p31
asg3
I300
sS'assembly'
p32
S'trinity_100000.Trinity.fasta'
p33
sg4
I0
sg5
(lp34
I1000
aI2500
aI5000
aI10000
aI25000
aI50000
aI100000
asg7
Nsg8
S'4'
sg9
Nsg10
I33
sg11
g12
sg13
Nsg14
(lp35
sg16
I100000
sg17
I00
sg18
I33
sg19
(lp36
(lp37
g22
ag23
aasg24
g25
sg26
I00
sa(dp38
g28
(lp39
g30
ag31
asg3
I300
sg32
g33
sg4
I0
sg5
(lp40
I1000
aI2500
aI5000
aI10000
aI25000
aI50000
aI100000
asg7
Nsg8
S'4'
sg9
Nsg10
I33
sg11
g12
sg13
Nsg14
(lp41
sg16
I100000
sg17
I00
sg18
I33
sg19
(lp42
(lp43
g22
ag23
aasg24
g25
sg26
I00
sa(dp44
g28
(lp45
g30
ag31
asg3
I300
sg32
g33
sg4
I0
sg5
(lp46
I1000
aI2500
aI5000
aI10000
aI25000
aI50000
aI100000
asg7
Nsg8
S'4'
sg9
Nsg10
I33
sg11
g12
sg13
Nsg14
(lp47
sg16
I100000
sg17
I00
sS'transcripts'
p48
S'/gpfs/scratch/aguang/treeinform/ms_treeinform/data/revisions/trinity/scratch/transcriptome-4/trinity.all.fa'
p49
sg26
I00
sg19
(lp50
(lp51
g22
ag23
aasg24
g25
sg18
I33
sa(dp52
g28
(lp53
g30
ag31
asg3
I300
sg32
g33
sg4
I0
sg5
(lp54
I1000
aI2500
aI5000
aI10000
aI25000
aI50000
aI100000
asg7
Nsg8
S'4'
sg9
Nsg10
I33
sg11
g12
sS'blast_xml'
p55
S'rrna.xml'
p56
sg13
Nsg14
(lp57
sg16
I100000
sg17
I00
sg48
g49
sg26
I00
sg19
(lp58
(lp59
g22
ag23
aasg24
g25
sg18
I33
sa(dp60
g28
(lp61
g30
ag31
asg3
I300
sg32
g33
sg4
I0
sg5
(lp62
I1000
aI2500
aI5000
aI10000
aI25000
aI50000
aI100000
asg7
Nsg8
S'4'
sg9
Nsg10
I33
sg11
g12
sg55
g56
sg13
NsS'exemplars_fasta'
p63
Nsg14
(lp64
sg16
I100000
sg17
I00
sg48
g49
sg26
I00
sg19
(lp65
(lp66
g22
ag23
aasg24
g25
sg18
I33
sa(dp67
g28
(lp68
g30
ag31
asg9
Nsg13
Nsg18
I33
sg10
I33
sg24
g25
sg26
I00
sg55
g56
sg32
g33
sg4
I0
sg8
S'4'
sg63
Nsg14
(lp69
sg16
I100000
sg19
(lp70
(lp71
g22
ag23
aasg3
I300
sg5
(lp72
I1000
aI2500
aI5000
aI10000
aI25000
aI50000
aI100000
asg7
NsS'ids'
p73
Nsg11
g12
sg17
I00
sg48
g49
sa(dp74
g28
(lp75
g30
ag31
asS'scratch'
p76
S'/gpfs/scratch/aguang/treeinform/ms_treeinform/data/revisions/trinity/scratch/transcriptome-4'
p77
sg9
Nsg13
Nsg18
I33
sg10
I33
sg24
g25
sg26
I00
sg55
g56
sg32
g33
sg4
I0
sg8
S'4'
sg63
Nsg14
(lp78
sg16
I100000
sg19
(lp79
(lp80
g22
ag23
aasg3
I300
sg5
(lp81
I1000
aI2500
aI5000
aI10000
aI25000
aI50000
aI100000
asg7
Nsg73
Nsg11
g12
sg17
I00
sg48
g49
sa(dp82
g28
(lp83
g30
ag31
asg76
g77
sg9
Nsg13
Nsg18
I33
sg10
I33
sg24
g25
sg26
I00
sg55
g56
sg32
g33
sg4
I0
sg8
S'4'
sg63
Nsg14
(lp84
sg16
I0
sg19
(lp85
(lp86
g22
ag23
aasg3
I300
sg5
(lp87
I1000
aI2500
aI5000
aI10000
aI25000
aI50000
aI100000
asg7
Nsg73
Nsg11
g12
sg17
I00
sg48
g49
sa(dp88
g28
(lp89
g30
ag31
asg76
g77
sg9
Nsg13
Nsg18
I33
sg10
I33
sg24
g25
sg26
I00
sg55
g56
sg32
g33
sg4
I0
sg8
S'4'
sg63
Nsg14
(lp90
sg16
I0
sg19
(lp91
(lp92
g22
ag23
aasg3
I300
sg5
(lp93
I1000
aI2500
aI5000
aI10000
aI25000
aI50000
aI100000
asS'rrna_id'
p94
Nsg7
Nsg73
Nsg11
g12
sg17
I00
sg48
g49
sa(dp95
g28
(lp96
g30
ag31
asg76
g77
sg9
Nsg13
Nsg18
I33
sg10
I33
sg24
g25
sg26
I00
sg55
g56
sg32
g33
sg4
I0
sg8
S'4'
sg63
Nsg14
(lp97
sg16
I0
sg19
(lp98
(lp99
g22
ag23
aa(lp100
S'filtered.0.fq'
p101
aS'filtered.1.fq'
p102
aasg3
I300
sg5
(lp103
I1000
aI2500
aI5000
aI10000
aI25000
aI50000
aI100000
asg94
Nsg7
Nsg73
Nsg11
g12
sg17
I00
sg48
g49
sa(dp104
g28
(lp105
g30
ag31
asg76
g77
sg9
Nsg13
Nsg18
I33
sg10
I33
sg24
g25
sg26
I00
sg55
g56
sg32
S'trinity_out_dir/Trinity.fasta'
p106
sg4
I0
sg8
S'4'
sg63
Nsg14
(lp107
sg16
I0
sg19
(lp108
(lp109
g22
ag23
aa(lp110
g101
ag102
aasg3
I300
sg5
(lp111
I1000
aI2500
aI5000
aI10000
aI25000
aI50000
aI100000
asg94
Nsg7
Nsg73
Nsg11
g12
sg17
I00
sg48
g49
sa(dp112
g28
(lp113
g30
ag31
asS'parsed_assembly'
p114
S'SRX288431.fa'
p115
sg76
g77
sg9
Nsg13
Nsg18
I33
sg10
I33
sg24
g25
sg26
I00
sg55
g56
sg32
g106
sg4
I0
sg8
S'4'
sg63
Nsg14
(lp116
sg16
I0
sg19
(lp117
(lp118
g22
ag23
aa(lp119
g101
ag102
aasg3
I300
sg5
(lp120
I1000
aI2500
aI5000
aI10000
aI25000
aI50000
aI100000
asg94
Nsg7
Nsg73
Nsg11
g12
sg17
I00
sg48
g49
sa(dp121
g28
(lp122
g30
ag31
asg114
g115
sg76
g77
sg9
Nsg13
Nsg18
I33
sg10
I33
sg24
g25
sg26
I00
sg55
g56
sg32
g106
sg4
I0
sg8
S'4'
sg63
Nsg14
(lp123
sg16
I0
sg19
(lp124
(lp125
g22
ag23
aa(lp126
g101
ag102
aasg3
I300
sg5
(lp127
I1000
aI2500
aI5000
aI10000
aI25000
aI50000
aI100000
asg94
Nsg7
Nsg73
Nsg11
g12
sg17
I00
sg48
g49
sa(dp128
g28
(lp129
g30
ag31
asg114
g115
sg76
g77
sg9
Nsg13
Nsg18
I33
sg10
I33
sg24
g25
sg26
I00
sg55
g56
sg32
g106
sg4
I0
sg8
S'4'
sg63
Nsg14
(lp130
sg16
I0
sg19
(lp131
(lp132
g22
ag23
aa(lp133
g101
ag102
aasg3
I300
sg5
(lp134
I1000
aI2500
aI5000
aI10000
aI25000
aI50000
aI100000
asg94
Nsg7
Nsg73
Nsg11
g12
sg17
I00
sg48
g49
sa(dp135
g28
(lp136
g30
ag31
asg114
g115
sg76
g77
sg9
NsS'scores'
p137
S'rsem_eval.score.isoforms.results'
p138
sg13
Nsg18
I33
sg10
I33
sg24
g25
sg26
I00
sg55
g56
sg32
g106
sg4
I0
sg8
S'4'
sg63
Nsg14
(lp139
sg16
I0
sg19
(lp140
(lp141
g22
ag23
aa(lp142
g101
ag102
aasg3
I300
sg5
(lp143
I1000
aI2500
aI5000
aI10000
aI25000
aI50000
aI100000
asg94
Nsg7
Nsg73
Nsg11
g12
sg17
I00
sg48
g49
sa(dp144
g28
(lp145
g30
ag31
asg114
g115
sg76
g77
sg9
Nsg137
g138
sg13
Nsg18
I33
sg10
I33
sg24
g25
sg26
I00
sg55
g56
sg32
g106
sg4
I0
sg8
S'4'
sg63
Nsg14
(lp146
sg16
I0
sg19
(lp147
(lp148
g22
ag23
aa(lp149
g101
ag102
aasg3
I300
sg5
(lp150
I1000
aI2500
aI5000
aI10000
aI25000
aI50000
aI100000
asg94
Nsg7
Nsg73
Nsg11
g12
sg17
I00
sg48
g49
sa(dp151
g28
(lp152
g30
ag31
asg114
g115
sg76
g77
sg9
Nsg137
g138
sg13
NsS'sequences'
p153
S'SRX288431.fa'
p154
sg18
I33
sg10
I33
sg24
g25
sg26
I00
sg55
g56
sg32
g106
sg4
I0
sg8
S'4'
sg63
Nsg14
(lp155
sg16
I0
sg19
(lp156
(lp157
g22
ag23
aa(lp158
g101
ag102
aasg3
I300
sg5
(lp159
I1000
aI2500
aI5000
aI10000
aI25000
aI50000
aI100000
asg94
Nsg7
Nsg73
Nsg11
g12
sg17
I00
sg48
g49
sa(dp160
g28
(lp161
g30
ag31
asg114
g115
sg76
g77
sg9
Nsg137
g138
sg13
Nsg153
g154
sg18
I33
sg10
I33
sg24
g25
sg26
I00
sS'orfs'
p162
S'SRX288431.fa.transdecoder_dir/longest_orfs.pep'
p163
sg55
g56
sg32
g106
sg4
I0
sg8
S'4'
sg63
Nsg14
(lp164
sg16
I0
sS'cds'
p165
S'SRX288431.fa.transdecoder_dir/longest_orfs.cds'
p166
sg19
(lp167
(lp168
g22
ag23
aa(lp169
g101
ag102
aasg3
I300
sg5
(lp170
I1000
aI2500
aI5000
aI10000
aI25000
aI50000
aI100000
asg94
Nsg7
Nsg73
Nsg11
g12
sg17
I00
sg48
g49
sa(dp171
g28
(lp172
g30
ag31
asg114
g115
sg76
g77
sg9
Nsg137
g138
sg13
Nsg153
g154
sg18
I33
sg10
I33
sg24
g25
sg26
I00
sg162
g163
sg55
g56
sg32
g106
sg4
I0
sg8
S'4'
sg63
Nsg14
(lp173
sg16
I0
sg165
g166
sg19
(lp174
(lp175
g22
ag23
aa(lp176
g101
ag102
aasg3
I300
sS'hits'
p177
(dp178
S'62|m.8'
p179
ccopy_reg
_reconstructor
p180
(cbiolite.workflows.blast
TabularHit
p181
c__builtin__
tuple
p182
(g179
S'266'
p183
S'swissprot|Q9R0X4|ACOT9_MOUSE'
p184
S'439'
p185
S'1/1'
p186
S'48.249'
p187
S'124'
p188
S'257'
p189
S'133'
p190
S'0'
S'1'
S'257'
p191
S'165'
p192
S'421'
p193
S'1.43e-81'
p194
S'254'
p195
S'swissprot|Q9R0X4|ACOT9_MOUSE Acyl-coenzyme A thioesterase 9, mitochondrial OS=Mus musculus (Mouse)'
p196
ttRp197
sS'59|m.5'
p198
g180
(g181
g182
(g198
S'115'
p199
S'swissprot|Q9Y6M5|ZNT1_HUMAN'
p200
S'507'
p201
S'1/1'
p202
S'48.485'
p203
S'48'
p204
S'99'
p205
S'50'
p206
S'1'
S'17'
p207
S'115'
p208
S'312'
p209
S'409'
p210
S'5.23e-28'
p211
S'109'
p212
S'swissprot|Q9Y6M5|ZNT1_HUMAN Zinc transporter 1 OS=Homo sapiens (Human)'
p213
ttRp214
sS'56|m.2'
p215
g180
(g181
g182
(g215
S'197'
p216
S'swissprot|A8KB59|CC153_DANRE'
p217
S'202'
p218
S'1/1'
p219
S'37.427'
p220
S'64'
p221
S'171'
p222
S'107'
p223
S'0'
S'24'
p224
S'194'
p225
S'30'
p226
S'200'
p227
S'7.84e-32'
p228
S'117'
p229
S'swissprot|A8KB59|CC153_DANRE Coiled-coil domain-containing protein 153 OS=Danio rerio (Zebrafish) (Brachydanio rerio)'
p230
ttRp231
sS'61|m.7'
p232
g180
(g181
g182
(g232
S'289'
p233
S'swissprot|Q9BSE4|HERP2_HUMAN'
p234
S'406'
p235
S'1/1'
p236
S'31.818'
p237
S'98'
p238
S'308'
p239
S'152'
p240
S'13'
p241
S'6'
S'289'
p242
S'6'
S'279'
p243
S'4.07e-23'
p244
S'100'
p245
S'swissprot|Q9BSE4|HERP2_HUMAN Homocysteine-responsive endoplasmic reticulum-resident ubiquitin-like domain member 2 protein OS=Homo sapiens (Human)'
p246
ttRp247
sS'57|m.3'
p248
g180
(g181
g182
(g248
S'318'
p249
S'swissprot|Q9DEY9|BLM_XENLA'
p250
S'1364'
p251
S'1/1'
p252
S'28.296'
p253
S'88'
p254
S'311'
p255
S'193'
p256
S'8'
S'11'
p257
S'310'
p258
S'1057'
p259
S'1348'
p260
S'1.42e-21'
p261
S'99.0'
p262
S'swissprot|Q9DEY9|BLM_XENLA Bloom syndrome protein homolog OS=Xenopus laevis (African clawed frog)'
p263
ttRp264
sS'60|m.6'
p265
g180
(g181
g182
(g265
S'382'
p266
S'swissprot|Q9Z129|RECQ1_MOUSE'
p267
S'648'
p268
S'1/1'
p269
S'51.724'
p270
S'195'
p271
S'377'
p272
S'176'
p273
S'3'
S'11'
p274
S'382'
p275
S'6'
S'381'
p276
S'6.19e-127'
p277
S'382'
p278
S'swissprot|Q9Z129|RECQ1_MOUSE ATP-dependent DNA helicase Q1 OS=Mus musculus (Mouse)'
p279
ttRp280
sS'58|m.4'
p281
g180
(g181
g182
(g281
S'340'
p282
S'swissprot|Q9GRC0|MOS_PATPE'
p283
S'351'
p284
S'1/1'
p285
S'46.992'
p286
S'125'
p287
S'266'
p288
S'135'
p289
S'5'
S'53'
p290
S'317'
p291
S'70'
p292
S'330'
p293
S'2.59e-78'
p294
S'246'
p295
S'swissprot|Q9GRC0|MOS_PATPE Serine/threonine-protein kinase mos {ECO:0000250|UniProtKB:P10741} OS=Patiria pectinifera (Starfish) (Asterina pectinifera)'
p296
ttRp297
sS'55|m.1'
p298
g180
(g181
g182
(g298
S'159'
p299
S'swissprot|Q58DK4|TKFC_BOVIN'
p300
S'578'
p301
S'1/1'
p302
S'34.146'
p303
S'56'
p304
S'164'
p305
S'95'
p306
S'5'
S'1'
S'159'
p307
S'303'
p308
S'458'
p309
S'5.72e-17'
p310
S'80.1'
p311
S'swissprot|Q58DK4|TKFC_BOVIN Triokinase/FMN cyclase OS=Bos taurus (Bovine)'
p312
ttRp313
sS'63|m.9'
p314
g180
(g181
g182
(g314
S'231'
p315
S'swissprot|Q6AYJ1|RECQ1_RAT'
p316
S'621'
p317
S'1/1'
p318
S'38.393'
p319
S'86'
p320
S'224'
p321
S'127'
p322
S'3'
S'1'
S'222'
p323
S'406'
p324
S'620'
p325
S'5.79e-44'
p326
S'159'
p327
S'swissprot|Q6AYJ1|RECQ1_RAT ATP-dependent DNA helicase Q1 OS=Rattus norvegicus (Rat)'
p328
ttRp329
ssg5
(lp330
I1000
aI2500
aI5000
aI10000
aI25000
aI50000
aI100000
asg94
Nsg7
Nsg73
Nsg11
g12
sg17
I00
sg48
g49
sa(dp331
g28
(lp332
g30
ag31
asg114
g115
sg76
g77
sg9
Nsg137
g138
sg13
Nsg153
g154
sg18
I33
sg10
I33
sg24
g25
sg26
I00
sg162
g163
sg55
g56
sg32
g106
sg4
I0
sg8
S'4'
sg63
Nsg14
(lp333
sg16
I0
sg165
g166
sg19
(lp334
(lp335
g22
ag23
aa(lp336
g101
ag102
aasg3
I300
sg177
(dp337
g179
g180
(g181
g182
(g179
g183
g184
g185
g186
g187
g188
g189
g190
S'0'
S'1'
g191
g192
g193
g194
g195
g196
ttRp338
sg198
g180
(g181
g182
(g198
g199
g200
g201
g202
g203
g204
g205
g206
S'1'
g207
g208
g209
g210
g211
g212
g213
ttRp339
sg215
g180
(g181
g182
(g215
g216
g217
g218
g219
g220
g221
g222
g223
S'0'
g224
g225
g226
g227
g228
g229
g230
ttRp340
sg232
g180
(g181
g182
(g232
g233
g234
g235
g236
g237
g238
g239
g240
g241
S'6'
g242
S'6'
g243
g244
g245
g246
ttRp341
sg248
g180
(g181
g182
(g248
g249
g250
g251
g252
g253
g254
g255
g256
S'8'
g257
g258
g259
g260
g261
g262
g263
ttRp342
sg265
g180
(g181
g182
(g265
g266
g267
g268
g269
g270
g271
g272
g273
S'3'
g274
g275
S'6'
g276
g277
g278
g279
ttRp343
sg281
g180
(g181
g182
(g281
g282
g283
g284
g285
g286
g287
g288
g289
S'5'
g290
g291
g292
g293
g294
g295
g296
ttRp344
sg298
g180
(g181
g182
(g298
g299
g300
g301
g302
g303
g304
g305
g306
S'5'
S'1'
g307
g308
g309
g310
g311
g312
ttRp345
sg314
g180
(g181
g182
(g314
g315
g316
g317
g318
g319
g320
g321
g322
S'3'
S'1'
g323
g324
g325
g326
g327
g328
ttRp346
ssg5
(lp347
I1000
aI2500
aI5000
aI10000
aI25000
aI50000
aI100000
asg94
Nsg7
Nsg73
Nsg11
g12
sg17
I00
sg48
g49
sa.