(lp1
(dp2
S'min_length'
p3
I300
sS'assemble_nreads'
p4
I0
sS'subsets'
p5
(lp6
I1000
aI2500
aI5000
aI10000
aI25000
aI50000
aI100000
asS'ss'
p7
NsS'_run_id'
p8
S'3'
sS'fastq'
p9
NsS'quality'
p10
I33
sS'chkfile'
p11
S'transcriptome.chk'
p12
sS'seed'
p13
NsS'_data_sources'
p14
(lp15
sS'nreads'
p16
I100000
sS'gzip'
p17
I00
sS'assemble_quality'
p18
I33
sS'data'
p19
(lp20
(lp21
V/gpfs/scratch/aguang/treeinform/ms_treeinform/data/revisions/trinity/data/SRX288430_1.fq
p22
aV/gpfs/scratch/aguang/treeinform/ms_treeinform/data/revisions/trinity/data/SRX288430_2.fq
p23
aasS'id'
p24
S'SRX288430'
p25
sS'previous'
p26
I00
sa(dp27
S'subset'
p28
(lp29
S'subset.0.fq'
p30
aS'subset.1.fq'
p31
asg3
I300
sS'assembly'
p32
S'trinity_100000.Trinity.fasta'
p33
sg4
I0
sg5
(lp34
I1000
aI2500
aI5000
aI10000
aI25000
aI50000
aI100000
asg7
Nsg8
S'3'
sg9
Nsg10
I33
sg11
g12
sg13
Nsg14
(lp35
sg16
I100000
sg17
I00
sg18
I33
sg19
(lp36
(lp37
g22
ag23
aasg24
g25
sg26
I00
sa(dp38
g28
(lp39
g30
ag31
asg3
I300
sg32
g33
sg4
I0
sg5
(lp40
I1000
aI2500
aI5000
aI10000
aI25000
aI50000
aI100000
asg7
Nsg8
S'3'
sg9
Nsg10
I33
sg11
g12
sg13
Nsg14
(lp41
sg16
I100000
sg17
I00
sg18
I33
sg19
(lp42
(lp43
g22
ag23
aasg24
g25
sg26
I00
sa(dp44
g28
(lp45
g30
ag31
asg3
I300
sg32
g33
sg4
I0
sg5
(lp46
I1000
aI2500
aI5000
aI10000
aI25000
aI50000
aI100000
asg7
Nsg8
S'3'
sg9
Nsg10
I33
sg11
g12
sg13
Nsg14
(lp47
sg16
I100000
sg17
I00
sS'transcripts'
p48
S'/gpfs/scratch/aguang/treeinform/ms_treeinform/data/revisions/trinity/scratch/transcriptome-3/trinity.all.fa'
p49
sg26
I00
sg19
(lp50
(lp51
g22
ag23
aasg24
g25
sg18
I33
sa(dp52
g28
(lp53
g30
ag31
asg3
I300
sg32
g33
sg4
I0
sg5
(lp54
I1000
aI2500
aI5000
aI10000
aI25000
aI50000
aI100000
asg7
Nsg8
S'3'
sg9
Nsg10
I33
sg11
g12
sS'blast_xml'
p55
S'rrna.xml'
p56
sg13
Nsg14
(lp57
sg16
I100000
sg17
I00
sg48
g49
sg26
I00
sg19
(lp58
(lp59
g22
ag23
aasg24
g25
sg18
I33
sa(dp60
g28
(lp61
g30
ag31
asg3
I300
sg32
g33
sg4
I0
sg5
(lp62
I1000
aI2500
aI5000
aI10000
aI25000
aI50000
aI100000
asg7
Nsg8
S'3'
sg9
Nsg10
I33
sg11
g12
sg55
g56
sg13
NsS'exemplars_fasta'
p63
Nsg14
(lp64
sg16
I100000
sg17
I00
sg48
g49
sg26
I00
sg19
(lp65
(lp66
g22
ag23
aasg24
g25
sg18
I33
sa(dp67
g28
(lp68
g30
ag31
asg9
Nsg13
Nsg18
I33
sg10
I33
sg24
g25
sg26
I00
sg55
g56
sg32
g33
sg4
I0
sg8
S'3'
sg63
Nsg14
(lp69
sg16
I100000
sg19
(lp70
(lp71
g22
ag23
aasg3
I300
sg5
(lp72
I1000
aI2500
aI5000
aI10000
aI25000
aI50000
aI100000
asg7
NsS'ids'
p73
Nsg11
g12
sg17
I00
sg48
g49
sa(dp74
g28
(lp75
g30
ag31
asS'scratch'
p76
S'/gpfs/scratch/aguang/treeinform/ms_treeinform/data/revisions/trinity/scratch/transcriptome-3'
p77
sg9
Nsg13
Nsg18
I33
sg10
I33
sg24
g25
sg26
I00
sg55
g56
sg32
g33
sg4
I0
sg8
S'3'
sg63
Nsg14
(lp78
sg16
I100000
sg19
(lp79
(lp80
g22
ag23
aasg3
I300
sg5
(lp81
I1000
aI2500
aI5000
aI10000
aI25000
aI50000
aI100000
asg7
Nsg73
Nsg11
g12
sg17
I00
sg48
g49
sa(dp82
g28
(lp83
g30
ag31
asg76
g77
sg9
Nsg13
Nsg18
I33
sg10
I33
sg24
g25
sg26
I00
sg55
g56
sg32
g33
sg4
I0
sg8
S'3'
sg63
Nsg14
(lp84
sg16
I0
sg19
(lp85
(lp86
g22
ag23
aasg3
I300
sg5
(lp87
I1000
aI2500
aI5000
aI10000
aI25000
aI50000
aI100000
asg7
Nsg73
Nsg11
g12
sg17
I00
sg48
g49
sa(dp88
g28
(lp89
g30
ag31
asg76
g77
sg9
Nsg13
Nsg18
I33
sg10
I33
sg24
g25
sg26
I00
sg55
g56
sg32
g33
sg4
I0
sg8
S'3'
sg63
Nsg14
(lp90
sg16
I0
sg19
(lp91
(lp92
g22
ag23
aasg3
I300
sg5
(lp93
I1000
aI2500
aI5000
aI10000
aI25000
aI50000
aI100000
asS'rrna_id'
p94
Nsg7
Nsg73
Nsg11
g12
sg17
I00
sg48
g49
sa(dp95
g28
(lp96
g30
ag31
asg76
g77
sg9
Nsg13
Nsg18
I33
sg10
I33
sg24
g25
sg26
I00
sg55
g56
sg32
g33
sg4
I0
sg8
S'3'
sg63
Nsg14
(lp97
sg16
I0
sg19
(lp98
(lp99
g22
ag23
aa(lp100
S'filtered.0.fq'
p101
aS'filtered.1.fq'
p102
aasg3
I300
sg5
(lp103
I1000
aI2500
aI5000
aI10000
aI25000
aI50000
aI100000
asg94
Nsg7
Nsg73
Nsg11
g12
sg17
I00
sg48
g49
sa(dp104
g28
(lp105
g30
ag31
asg76
g77
sg9
Nsg13
Nsg18
I33
sg10
I33
sg24
g25
sg26
I00
sg55
g56
sg32
S'trinity_out_dir/Trinity.fasta'
p106
sg4
I0
sg8
S'3'
sg63
Nsg14
(lp107
sg16
I0
sg19
(lp108
(lp109
g22
ag23
aa(lp110
g101
ag102
aasg3
I300
sg5
(lp111
I1000
aI2500
aI5000
aI10000
aI25000
aI50000
aI100000
asg94
Nsg7
Nsg73
Nsg11
g12
sg17
I00
sg48
g49
sa(dp112
g28
(lp113
g30
ag31
asS'parsed_assembly'
p114
S'SRX288430.fa'
p115
sg76
g77
sg9
Nsg13
Nsg18
I33
sg10
I33
sg24
g25
sg26
I00
sg55
g56
sg32
g106
sg4
I0
sg8
S'3'
sg63
Nsg14
(lp116
sg16
I0
sg19
(lp117
(lp118
g22
ag23
aa(lp119
g101
ag102
aasg3
I300
sg5
(lp120
I1000
aI2500
aI5000
aI10000
aI25000
aI50000
aI100000
asg94
Nsg7
Nsg73
Nsg11
g12
sg17
I00
sg48
g49
sa(dp121
g28
(lp122
g30
ag31
asg114
g115
sg76
g77
sg9
Nsg13
Nsg18
I33
sg10
I33
sg24
g25
sg26
I00
sg55
g56
sg32
g106
sg4
I0
sg8
S'3'
sg63
Nsg14
(lp123
sg16
I0
sg19
(lp124
(lp125
g22
ag23
aa(lp126
g101
ag102
aasg3
I300
sg5
(lp127
I1000
aI2500
aI5000
aI10000
aI25000
aI50000
aI100000
asg94
Nsg7
Nsg73
Nsg11
g12
sg17
I00
sg48
g49
sa(dp128
g28
(lp129
g30
ag31
asg114
g115
sg76
g77
sg9
Nsg13
Nsg18
I33
sg10
I33
sg24
g25
sg26
I00
sg55
g56
sg32
g106
sg4
I0
sg8
S'3'
sg63
Nsg14
(lp130
sg16
I0
sg19
(lp131
(lp132
g22
ag23
aa(lp133
g101
ag102
aasg3
I300
sg5
(lp134
I1000
aI2500
aI5000
aI10000
aI25000
aI50000
aI100000
asg94
Nsg7
Nsg73
Nsg11
g12
sg17
I00
sg48
g49
sa(dp135
g28
(lp136
g30
ag31
asg114
g115
sg76
g77
sg9
NsS'scores'
p137
S'rsem_eval.score.isoforms.results'
p138
sg13
Nsg18
I33
sg10
I33
sg24
g25
sg26
I00
sg55
g56
sg32
g106
sg4
I0
sg8
S'3'
sg63
Nsg14
(lp139
sg16
I0
sg19
(lp140
(lp141
g22
ag23
aa(lp142
g101
ag102
aasg3
I300
sg5
(lp143
I1000
aI2500
aI5000
aI10000
aI25000
aI50000
aI100000
asg94
Nsg7
Nsg73
Nsg11
g12
sg17
I00
sg48
g49
sa(dp144
g28
(lp145
g30
ag31
asg114
g115
sg76
g77
sg9
Nsg137
g138
sg13
Nsg18
I33
sg10
I33
sg24
g25
sg26
I00
sg55
g56
sg32
g106
sg4
I0
sg8
S'3'
sg63
Nsg14
(lp146
sg16
I0
sg19
(lp147
(lp148
g22
ag23
aa(lp149
g101
ag102
aasg3
I300
sg5
(lp150
I1000
aI2500
aI5000
aI10000
aI25000
aI50000
aI100000
asg94
Nsg7
Nsg73
Nsg11
g12
sg17
I00
sg48
g49
sa(dp151
g28
(lp152
g30
ag31
asg114
g115
sg76
g77
sg9
Nsg137
g138
sg13
NsS'sequences'
p153
S'SRX288430.fa'
p154
sg18
I33
sg10
I33
sg24
g25
sg26
I00
sg55
g56
sg32
g106
sg4
I0
sg8
S'3'
sg63
Nsg14
(lp155
sg16
I0
sg19
(lp156
(lp157
g22
ag23
aa(lp158
g101
ag102
aasg3
I300
sg5
(lp159
I1000
aI2500
aI5000
aI10000
aI25000
aI50000
aI100000
asg94
Nsg7
Nsg73
Nsg11
g12
sg17
I00
sg48
g49
sa(dp160
g28
(lp161
g30
ag31
asg114
g115
sg76
g77
sg9
Nsg137
g138
sg13
Nsg153
g154
sg18
I33
sg10
I33
sg24
g25
sg26
I00
sS'orfs'
p162
S'SRX288430.fa.transdecoder_dir/longest_orfs.pep'
p163
sg55
g56
sg32
g106
sg4
I0
sg8
S'3'
sg63
Nsg14
(lp164
sg16
I0
sS'cds'
p165
S'SRX288430.fa.transdecoder_dir/longest_orfs.cds'
p166
sg19
(lp167
(lp168
g22
ag23
aa(lp169
g101
ag102
aasg3
I300
sg5
(lp170
I1000
aI2500
aI5000
aI10000
aI25000
aI50000
aI100000
asg94
Nsg7
Nsg73
Nsg11
g12
sg17
I00
sg48
g49
sa(dp171
g28
(lp172
g30
ag31
asg114
g115
sg76
g77
sg9
Nsg137
g138
sg13
Nsg153
g154
sg18
I33
sg10
I33
sg24
g25
sg26
I00
sg162
g163
sg55
g56
sg32
g106
sg4
I0
sg8
S'3'
sg63
Nsg14
(lp173
sg16
I0
sg165
g166
sg19
(lp174
(lp175
g22
ag23
aa(lp176
g101
ag102
aasg3
I300
sS'hits'
p177
(dp178
S'54|m.15'
p179
ccopy_reg
_reconstructor
p180
(cbiolite.workflows.blast
TabularHit
p181
c__builtin__
tuple
p182
(g179
S'185'
p183
S'swissprot|Q9VGI8|BLM_DROME'
p184
S'1487'
p185
S'1/1'
p186
S'46.199'
p187
S'79'
p188
S'171'
p189
S'78'
p190
S'3'
S'1'
S'170'
p191
S'1025'
p192
S'1182'
p193
S'7.76e-44'
p194
S'158'
p195
S'swissprot|Q9VGI8|BLM_DROME Bloom syndrome protein homolog OS=Drosophila melanogaster (Fruit fly)'
p196
ttRp197
sS'45|m.6'
p198
g180
(g181
g182
(g198
S'201'
p199
S'swissprot|A8KB59|CC153_DANRE'
p200
S'202'
p201
S'1/1'
p202
S'33.520'
p203
S'60'
p204
S'179'
p205
S'117'
p206
S'1'
S'22'
p207
S'200'
p208
S'26'
p209
S'202'
p210
S'2.47e-24'
p211
S'97.8'
p212
S'swissprot|A8KB59|CC153_DANRE Coiled-coil domain-containing protein 153 OS=Danio rerio (Zebrafish) (Brachydanio rerio)'
p213
ttRp214
sS'43|m.3'
p215
g180
(g181
g182
(g215
S'318'
p216
S'swissprot|Q9Y305|ACOT9_HUMAN'
p217
S'439'
p218
S'1/1'
p219
S'43.789'
p220
S'141'
p221
S'322'
p222
S'173'
p223
S'3'
S'2'
S'316'
p224
S'114'
p225
S'434'
p226
S'4.59e-88'
p227
S'273'
p228
S'swissprot|Q9Y305|ACOT9_HUMAN Acyl-coenzyme A thioesterase 9, mitochondrial OS=Homo sapiens (Human)'
p229
ttRp230
sS'50|m.11'
p231
g180
(g181
g182
(g231
S'972'
p232
S'swissprot|A2AWA9|RBGP1_MOUSE'
p233
S'1064'
p234
S'1/1'
p235
S'42.690'
p236
S'365'
p237
S'855'
p238
S'453'
p239
S'10'
p240
S'86'
p241
S'925'
p242
S'135'
p243
S'967'
p244
S'0.0'
p245
S'664'
p246
S'swissprot|A2AWA9|RBGP1_MOUSE Rab GTPase-activating protein 1 OS=Mus musculus (Mouse)'
p247
ttRp248
sS'46|m.8'
p249
g180
(g181
g182
(g249
S'171'
p250
S'swissprot|Q502M5|EDC3_DANRE'
p251
S'507'
p252
S'1/1'
p253
S'46.012'
p254
S'75'
p255
S'163'
p256
S'84'
p257
S'2'
S'1'
S'160'
p258
S'249'
p259
S'410'
p260
S'5.33e-44'
p261
S'154'
p262
S'swissprot|Q502M5|EDC3_DANRE Enhancer of mRNA-decapping protein 3 OS=Danio rerio (Zebrafish) (Brachydanio rerio)'
p263
ttRp264
sS'44|m.4'
p265
g180
(g181
g182
(g265
S'364'
p266
S'swissprot|Q9GRC0|MOS_PATPE'
p267
S'351'
p268
S'1/1'
p269
S'49.438'
p270
S'132'
p271
S'267'
p272
S'126'
p273
S'6'
S'73'
p274
S'337'
p275
S'71'
p276
S'330'
p277
S'2.30e-82'
p278
S'257'
p279
S'swissprot|Q9GRC0|MOS_PATPE Serine/threonine-protein kinase mos {ECO:0000250|UniProtKB:P10741} OS=Patiria pectinifera (Starfish) (Asterina pectinifera)'
p280
ttRp281
sS'41|m.1'
p282
g180
(g181
g182
(g282
S'427'
p283
S'swissprot|P46063|RECQ1_HUMAN'
p284
S'649'
p285
S'1/1'
p286
S'52.333'
p287
S'157'
p288
S'300'
p289
S'140'
p290
S'2'
S'1'
S'298'
p291
S'277'
p292
S'575'
p293
S'8.94e-102'
p294
S'319'
p295
S'swissprot|P46063|RECQ1_HUMAN ATP-dependent DNA helicase Q1 OS=Homo sapiens (Human)'
p296
ttRp297
sS'48|m.10'
p298
g180
(g181
g182
(g298
S'469'
p299
S'swissprot|P20107|ZRC1_YEAST'
p300
S'442'
p301
S'1/1'
p302
S'37.111'
p303
S'167'
p304
S'450'
p305
S'192'
p306
S'12'
p307
S'1'
S'443'
p308
S'20'
p309
S'385'
p310
S'1.25e-77'
p311
S'252'
p312
S"swissprot|P20107|ZRC1_YEAST Zinc/cadmium resistance protein OS=Saccharomyces cerevisiae (strain ATCC 204508 / S288c) (Baker's yeast)"
p313
ttRp314
sS'51|m.14'
p315
g180
(g181
g182
(g315
S'191'
p316
S'swissprot|Q6AYJ1|RECQ1_RAT'
p317
S'621'
p318
S'1/1'
p319
S'43.979'
p320
S'84'
p321
S'191'
p322
S'101'
p323
S'2'
S'7'
S'191'
p324
S'2'
S'192'
p325
S'9.07e-49'
p326
S'170'
p327
S'swissprot|Q6AYJ1|RECQ1_RAT ATP-dependent DNA helicase Q1 OS=Rattus norvegicus (Rat)'
p328
ttRp329
sS'42|m.2'
p330
g180
(g181
g182
(g330
S'153'
p331
S'swissprot|Q0V989|CC85C_XENTR'
p332
S'391'
p333
S'1/1'
p334
S'47.200'
p335
S'59'
p336
S'125'
p337
S'66'
p338
S'0'
S'22'
p339
S'146'
p340
S'29'
p341
S'153'
p342
S'1.58e-33'
p343
S'124'
p344
S'swissprot|Q0V989|CC85C_XENTR Coiled-coil domain-containing protein 85C OS=Xenopus tropicalis (Western clawed frog) (Silurana tropicalis)'
p345
ttRp346
sS'47|m.9'
p347
g180
(g181
g182
(g347
S'469'
p348
S'swissprot|P20107|ZRC1_YEAST'
p349
S'442'
p350
S'1/1'
p351
S'37.111'
p352
S'167'
p353
S'450'
p354
S'192'
p355
S'12'
p356
S'1'
S'443'
p357
S'20'
p358
S'385'
p359
S'1.25e-77'
p360
S'252'
p361
S"swissprot|P20107|ZRC1_YEAST Zinc/cadmium resistance protein OS=Saccharomyces cerevisiae (strain ATCC 204508 / S288c) (Baker's yeast)"
p362
ttRp363
ssg5
(lp364
I1000
aI2500
aI5000
aI10000
aI25000
aI50000
aI100000
asg94
Nsg7
Nsg73
Nsg11
g12
sg17
I00
sg48
g49
sa(dp365
g28
(lp366
g30
ag31
asg114
g115
sg76
g77
sg9
Nsg137
g138
sg13
Nsg153
g154
sg18
I33
sg10
I33
sg24
g25
sg26
I00
sg162
g163
sg55
g56
sg32
g106
sg4
I0
sg8
S'3'
sg63
Nsg14
(lp367
sg16
I0
sg165
g166
sg19
(lp368
(lp369
g22
ag23
aa(lp370
g101
ag102
aasg3
I300
sg177
(dp371
g179
g180
(g181
g182
(g179
g183
g184
g185
g186
g187
g188
g189
g190
S'3'
S'1'
g191
g192
g193
g194
g195
g196
ttRp372
sg198
g180
(g181
g182
(g198
g199
g200
g201
g202
g203
g204
g205
g206
S'1'
g207
g208
g209
g210
g211
g212
g213
ttRp373
sg215
g180
(g181
g182
(g215
g216
g217
g218
g219
g220
g221
g222
g223
S'3'
S'2'
g224
g225
g226
g227
g228
g229
ttRp374
sg231
g180
(g181
g182
(g231
g232
g233
g234
g235
g236
g237
g238
g239
g240
g241
g242
g243
g244
g245
g246
g247
ttRp375
sg249
g180
(g181
g182
(g249
g250
g251
g252
g253
g254
g255
g256
g257
S'2'
S'1'
g258
g259
g260
g261
g262
g263
ttRp376
sg265
g180
(g181
g182
(g265
g266
g267
g268
g269
g270
g271
g272
g273
S'6'
g274
g275
g276
g277
g278
g279
g280
ttRp377
sg282
g180
(g181
g182
(g282
g283
g284
g285
g286
g287
g288
g289
g290
S'2'
S'1'
g291
g292
g293
g294
g295
g296
ttRp378
sg298
g180
(g181
g182
(g298
g299
g300
g301
g302
g303
g304
g305
g306
g307
S'1'
g308
g309
g310
g311
g312
g313
ttRp379
sg315
g180
(g181
g182
(g315
g316
g317
g318
g319
g320
g321
g322
g323
S'2'
S'7'
g324
S'2'
g325
g326
g327
g328
ttRp380
sg330
g180
(g181
g182
(g330
g331
g332
g333
g334
g335
g336
g337
g338
S'0'
g339
g340
g341
g342
g343
g344
g345
ttRp381
sg347
g180
(g181
g182
(g347
g348
g349
g350
g351
g352
g353
g354
g355
g356
S'1'
g357
g358
g359
g360
g361
g362
ttRp382
ssg5
(lp383
I1000
aI2500
aI5000
aI10000
aI25000
aI50000
aI100000
asg94
Nsg7
Nsg73
Nsg11
g12
sg17
I00
sg48
g49
sa.