(lp1
(dp2
S'min_length'
p3
I300
sS'assemble_nreads'
p4
I0
sS'subsets'
p5
(lp6
I1000
aI2500
aI5000
aI10000
aI25000
aI50000
aI100000
asS'ss'
p7
NsS'_run_id'
p8
S'2'
sS'fastq'
p9
NsS'quality'
p10
I33
sS'chkfile'
p11
S'transcriptome.chk'
p12
sS'seed'
p13
NsS'_data_sources'
p14
(lp15
sS'nreads'
p16
I100000
sS'gzip'
p17
I00
sS'assemble_quality'
p18
I33
sS'data'
p19
(lp20
(lp21
V/gpfs/scratch/aguang/treeinform/ms_treeinform/data/revisions/trinity/data/SRX288285_1.fq
p22
aV/gpfs/scratch/aguang/treeinform/ms_treeinform/data/revisions/trinity/data/SRX288285_2.fq
p23
aasS'id'
p24
S'SRX288285'
p25
sS'previous'
p26
I00
sa(dp27
S'subset'
p28
(lp29
S'subset.0.fq'
p30
aS'subset.1.fq'
p31
asg3
I300
sS'assembly'
p32
S'trinity_100000.Trinity.fasta'
p33
sg4
I0
sg5
(lp34
I1000
aI2500
aI5000
aI10000
aI25000
aI50000
aI100000
asg7
Nsg8
S'2'
sg9
Nsg10
I33
sg11
g12
sg13
Nsg14
(lp35
sg16
I100000
sg17
I00
sg18
I33
sg19
(lp36
(lp37
g22
ag23
aasg24
g25
sg26
I00
sa(dp38
g28
(lp39
g30
ag31
asg3
I300
sg32
g33
sg4
I0
sg5
(lp40
I1000
aI2500
aI5000
aI10000
aI25000
aI50000
aI100000
asg7
Nsg8
S'2'
sg9
Nsg10
I33
sg11
g12
sg13
Nsg14
(lp41
sg16
I100000
sg17
I00
sg18
I33
sg19
(lp42
(lp43
g22
ag23
aasg24
g25
sg26
I00
sa(dp44
g28
(lp45
g30
ag31
asg3
I300
sg32
g33
sg4
I0
sg5
(lp46
I1000
aI2500
aI5000
aI10000
aI25000
aI50000
aI100000
asg7
Nsg8
S'2'
sg9
Nsg10
I33
sg11
g12
sg13
Nsg14
(lp47
sg16
I100000
sg17
I00
sS'transcripts'
p48
S'/gpfs/scratch/aguang/treeinform/ms_treeinform/data/revisions/trinity/scratch/transcriptome-2/trinity.all.fa'
p49
sg26
I00
sg19
(lp50
(lp51
g22
ag23
aasg24
g25
sg18
I33
sa(dp52
g28
(lp53
g30
ag31
asg3
I300
sg32
g33
sg4
I0
sg5
(lp54
I1000
aI2500
aI5000
aI10000
aI25000
aI50000
aI100000
asg7
Nsg8
S'2'
sg9
Nsg10
I33
sg11
g12
sS'blast_xml'
p55
S'rrna.xml'
p56
sg13
Nsg14
(lp57
sg16
I100000
sg17
I00
sg48
g49
sg26
I00
sg19
(lp58
(lp59
g22
ag23
aasg24
g25
sg18
I33
sa(dp60
g28
(lp61
g30
ag31
asg3
I300
sg32
g33
sg4
I0
sg5
(lp62
I1000
aI2500
aI5000
aI10000
aI25000
aI50000
aI100000
asg7
Nsg8
S'2'
sg9
Nsg10
I33
sg11
g12
sg55
g56
sg13
NsS'exemplars_fasta'
p63
Nsg14
(lp64
sg16
I100000
sg17
I00
sg48
g49
sg26
I00
sg19
(lp65
(lp66
g22
ag23
aasg24
g25
sg18
I33
sa(dp67
g28
(lp68
g30
ag31
asg9
Nsg13
Nsg18
I33
sg10
I33
sg24
g25
sg26
I00
sg55
g56
sg32
g33
sg4
I0
sg8
S'2'
sg63
Nsg14
(lp69
sg16
I100000
sg19
(lp70
(lp71
g22
ag23
aasg3
I300
sg5
(lp72
I1000
aI2500
aI5000
aI10000
aI25000
aI50000
aI100000
asg7
NsS'ids'
p73
Nsg11
g12
sg17
I00
sg48
g49
sa(dp74
g28
(lp75
g30
ag31
asS'scratch'
p76
S'/gpfs/scratch/aguang/treeinform/ms_treeinform/data/revisions/trinity/scratch/transcriptome-2'
p77
sg9
Nsg13
Nsg18
I33
sg10
I33
sg24
g25
sg26
I00
sg55
g56
sg32
g33
sg4
I0
sg8
S'2'
sg63
Nsg14
(lp78
sg16
I100000
sg19
(lp79
(lp80
g22
ag23
aasg3
I300
sg5
(lp81
I1000
aI2500
aI5000
aI10000
aI25000
aI50000
aI100000
asg7
Nsg73
Nsg11
g12
sg17
I00
sg48
g49
sa(dp82
g28
(lp83
g30
ag31
asg76
g77
sg9
Nsg13
Nsg18
I33
sg10
I33
sg24
g25
sg26
I00
sg55
g56
sg32
g33
sg4
I0
sg8
S'2'
sg63
Nsg14
(lp84
sg16
I0
sg19
(lp85
(lp86
g22
ag23
aasg3
I300
sg5
(lp87
I1000
aI2500
aI5000
aI10000
aI25000
aI50000
aI100000
asg7
Nsg73
Nsg11
g12
sg17
I00
sg48
g49
sa(dp88
g28
(lp89
g30
ag31
asg76
g77
sg9
Nsg13
Nsg18
I33
sg10
I33
sg24
g25
sg26
I00
sg55
g56
sg32
g33
sg4
I0
sg8
S'2'
sg63
Nsg14
(lp90
sg16
I0
sg19
(lp91
(lp92
g22
ag23
aasg3
I300
sg5
(lp93
I1000
aI2500
aI5000
aI10000
aI25000
aI50000
aI100000
asS'rrna_id'
p94
Nsg7
Nsg73
Nsg11
g12
sg17
I00
sg48
g49
sa(dp95
g28
(lp96
g30
ag31
asg76
g77
sg9
Nsg13
Nsg18
I33
sg10
I33
sg24
g25
sg26
I00
sg55
g56
sg32
g33
sg4
I0
sg8
S'2'
sg63
Nsg14
(lp97
sg16
I0
sg19
(lp98
(lp99
g22
ag23
aa(lp100
S'filtered.0.fq'
p101
aS'filtered.1.fq'
p102
aasg3
I300
sg5
(lp103
I1000
aI2500
aI5000
aI10000
aI25000
aI50000
aI100000
asg94
Nsg7
Nsg73
Nsg11
g12
sg17
I00
sg48
g49
sa(dp104
g28
(lp105
g30
ag31
asg76
g77
sg9
Nsg13
Nsg18
I33
sg10
I33
sg24
g25
sg26
I00
sg55
g56
sg32
S'trinity_out_dir/Trinity.fasta'
p106
sg4
I0
sg8
S'2'
sg63
Nsg14
(lp107
sg16
I0
sg19
(lp108
(lp109
g22
ag23
aa(lp110
g101
ag102
aasg3
I300
sg5
(lp111
I1000
aI2500
aI5000
aI10000
aI25000
aI50000
aI100000
asg94
Nsg7
Nsg73
Nsg11
g12
sg17
I00
sg48
g49
sa(dp112
g28
(lp113
g30
ag31
asS'parsed_assembly'
p114
S'SRX288285.fa'
p115
sg76
g77
sg9
Nsg13
Nsg18
I33
sg10
I33
sg24
g25
sg26
I00
sg55
g56
sg32
g106
sg4
I0
sg8
S'2'
sg63
Nsg14
(lp116
sg16
I0
sg19
(lp117
(lp118
g22
ag23
aa(lp119
g101
ag102
aasg3
I300
sg5
(lp120
I1000
aI2500
aI5000
aI10000
aI25000
aI50000
aI100000
asg94
Nsg7
Nsg73
Nsg11
g12
sg17
I00
sg48
g49
sa(dp121
g28
(lp122
g30
ag31
asg114
g115
sg76
g77
sg9
Nsg13
Nsg18
I33
sg10
I33
sg24
g25
sg26
I00
sg55
g56
sg32
g106
sg4
I0
sg8
S'2'
sg63
Nsg14
(lp123
sg16
I0
sg19
(lp124
(lp125
g22
ag23
aa(lp126
g101
ag102
aasg3
I300
sg5
(lp127
I1000
aI2500
aI5000
aI10000
aI25000
aI50000
aI100000
asg94
Nsg7
Nsg73
Nsg11
g12
sg17
I00
sg48
g49
sa(dp128
g28
(lp129
g30
ag31
asg114
g115
sg76
g77
sg9
Nsg13
Nsg18
I33
sg10
I33
sg24
g25
sg26
I00
sg55
g56
sg32
g106
sg4
I0
sg8
S'2'
sg63
Nsg14
(lp130
sg16
I0
sg19
(lp131
(lp132
g22
ag23
aa(lp133
g101
ag102
aasg3
I300
sg5
(lp134
I1000
aI2500
aI5000
aI10000
aI25000
aI50000
aI100000
asg94
Nsg7
Nsg73
Nsg11
g12
sg17
I00
sg48
g49
sa(dp135
g28
(lp136
g30
ag31
asg114
g115
sg76
g77
sg9
NsS'scores'
p137
S'rsem_eval.score.isoforms.results'
p138
sg13
Nsg18
I33
sg10
I33
sg24
g25
sg26
I00
sg55
g56
sg32
g106
sg4
I0
sg8
S'2'
sg63
Nsg14
(lp139
sg16
I0
sg19
(lp140
(lp141
g22
ag23
aa(lp142
g101
ag102
aasg3
I300
sg5
(lp143
I1000
aI2500
aI5000
aI10000
aI25000
aI50000
aI100000
asg94
Nsg7
Nsg73
Nsg11
g12
sg17
I00
sg48
g49
sa(dp144
g28
(lp145
g30
ag31
asg114
g115
sg76
g77
sg9
Nsg137
g138
sg13
Nsg18
I33
sg10
I33
sg24
g25
sg26
I00
sg55
g56
sg32
g106
sg4
I0
sg8
S'2'
sg63
Nsg14
(lp146
sg16
I0
sg19
(lp147
(lp148
g22
ag23
aa(lp149
g101
ag102
aasg3
I300
sg5
(lp150
I1000
aI2500
aI5000
aI10000
aI25000
aI50000
aI100000
asg94
Nsg7
Nsg73
Nsg11
g12
sg17
I00
sg48
g49
sa(dp151
g28
(lp152
g30
ag31
asg114
g115
sg76
g77
sg9
Nsg137
g138
sg13
NsS'sequences'
p153
S'SRX288285.fa'
p154
sg18
I33
sg10
I33
sg24
g25
sg26
I00
sg55
g56
sg32
g106
sg4
I0
sg8
S'2'
sg63
Nsg14
(lp155
sg16
I0
sg19
(lp156
(lp157
g22
ag23
aa(lp158
g101
ag102
aasg3
I300
sg5
(lp159
I1000
aI2500
aI5000
aI10000
aI25000
aI50000
aI100000
asg94
Nsg7
Nsg73
Nsg11
g12
sg17
I00
sg48
g49
sa(dp160
g28
(lp161
g30
ag31
asg114
g115
sg76
g77
sg9
Nsg137
g138
sg13
Nsg153
g154
sg18
I33
sg10
I33
sg24
g25
sg26
I00
sS'orfs'
p162
S'SRX288285.fa.transdecoder_dir/longest_orfs.pep'
p163
sg55
g56
sg32
g106
sg4
I0
sg8
S'2'
sg63
Nsg14
(lp164
sg16
I0
sS'cds'
p165
S'SRX288285.fa.transdecoder_dir/longest_orfs.cds'
p166
sg19
(lp167
(lp168
g22
ag23
aa(lp169
g101
ag102
aasg3
I300
sg5
(lp170
I1000
aI2500
aI5000
aI10000
aI25000
aI50000
aI100000
asg94
Nsg7
Nsg73
Nsg11
g12
sg17
I00
sg48
g49
sa(dp171
g28
(lp172
g30
ag31
asg114
g115
sg76
g77
sg9
Nsg137
g138
sg13
Nsg153
g154
sg18
I33
sg10
I33
sg24
g25
sg26
I00
sg162
g163
sg55
g56
sg32
g106
sg4
I0
sg8
S'2'
sg63
Nsg14
(lp173
sg16
I0
sg165
g166
sg19
(lp174
(lp175
g22
ag23
aa(lp176
g101
ag102
aasg3
I300
sS'hits'
p177
(dp178
S'39|m.20'
p179
ccopy_reg
_reconstructor
p180
(cbiolite.workflows.blast
TabularHit
p181
c__builtin__
tuple
p182
(g179
S'211'
p183
S'swissprot|Q9D995|CNTD1_MOUSE'
p184
S'334'
p185
S'1/1'
p186
S'26.738'
p187
S'50'
p188
S'187'
p189
S'128'
p190
S'3'
S'23'
p191
S'200'
p192
S'110'
p193
S'296'
p194
S'5.55e-15'
p195
S'75.5'
p196
S'swissprot|Q9D995|CNTD1_MOUSE Cyclin N-terminal domain-containing protein 1 OS=Mus musculus (Mouse)'
p197
ttRp198
sS'31|m.12'
p199
g180
(g181
g182
(g199
S'1126'
p200
S'swissprot|Q9DEY9|BLM_XENLA'
p201
S'1364'
p202
S'1/1'
p203
S'44.544'
p204
S'347'
p205
S'779'
p206
S'387'
p207
S'14'
p208
S'369'
p209
S'1125'
p210
S'599'
p211
S'1354'
p212
S'0.0'
p213
S'605'
p214
S'swissprot|Q9DEY9|BLM_XENLA Bloom syndrome protein homolog OS=Xenopus laevis (African clawed frog)'
p215
ttRp216
sS'24|m.1'
p217
g180
(g181
g182
(g217
S'115'
p218
S'swissprot|Q96UQ7|RLA2_RHOGU'
p219
S'110'
p220
S'1/1'
p221
S'50.877'
p222
S'58'
p223
S'114'
p224
S'52'
p225
S'2'
S'1'
S'114'
p226
S'1'
S'110'
p227
S'1.12e-24'
p228
S'93.2'
p229
S'swissprot|Q96UQ7|RLA2_RHOGU 60S acidic ribosomal protein P2 OS=Rhodotorula glutinis (Yeast)'
p230
ttRp231
sS'33|m.14'
p232
g180
(g181
g182
(g232
S'344'
p233
S'swissprot|Q9GRC0|MOS_PATPE'
p234
S'351'
p235
S'1/1'
p236
S'44.582'
p237
S'144'
p238
S'323'
p239
S'164'
p240
S'9'
S'1'
S'320'
p241
S'20'
p242
S'330'
p243
S'1.94e-84'
p244
S'262'
p245
S'swissprot|Q9GRC0|MOS_PATPE Serine/threonine-protein kinase mos {ECO:0000250|UniProtKB:P10741} OS=Patiria pectinifera (Starfish) (Asterina pectinifera)'
p246
ttRp247
sS'40|m.21'
p248
g180
(g181
g182
(g248
S'444'
p249
S'swissprot|Q0V989|CC85C_XENTR'
p250
S'391'
p251
S'1/1'
p252
S'48.000'
p253
S'60'
p254
S'125'
p255
S'65'
p256
S'0'
S'79'
p257
S'203'
p258
S'29'
p259
S'153'
p260
S'2.79e-34'
p261
S'135'
p262
S'swissprot|Q0V989|CC85C_XENTR Coiled-coil domain-containing protein 85C OS=Xenopus tropicalis (Western clawed frog) (Silurana tropicalis)'
p263
ttRp264
sS'32|m.13'
p265
g180
(g181
g182
(g265
S'1126'
p266
S'swissprot|Q9DEY9|BLM_XENLA'
p267
S'1364'
p268
S'1/1'
p269
S'44.544'
p270
S'347'
p271
S'779'
p272
S'387'
p273
S'14'
p274
S'369'
p275
S'1125'
p276
S'599'
p277
S'1354'
p278
S'0.0'
p279
S'605'
p280
S'swissprot|Q9DEY9|BLM_XENLA Bloom syndrome protein homolog OS=Xenopus laevis (African clawed frog)'
p281
ttRp282
sS'27|m.6'
p283
g180
(g181
g182
(g283
S'477'
p284
S'swissprot|Q5RDU9|EDC3_PONAB'
p285
S'508'
p286
S'1/1'
p287
S'35.328'
p288
S'183'
p289
S'518'
p290
S'274'
p291
S'14'
p292
S'5'
S'474'
p293
S'2'
S'506'
p294
S'9.97e-86'
p295
S'275'
p296
S'swissprot|Q5RDU9|EDC3_PONAB Enhancer of mRNA-decapping protein 3 OS=Pongo abelii (Sumatran orangutan) (Pongo pygmaeus abelii)'
p297
ttRp298
sS'36|m.17'
p299
g180
(g181
g182
(g299
S'452'
p300
S'swissprot|Q9BSE4|HERP2_HUMAN'
p301
S'406'
p302
S'1/1'
p303
S'31.084'
p304
S'152'
p305
S'489'
p306
S'201'
p307
S'19'
p308
S'1'
S'446'
p309
S'6'
S'401'
p310
S'1.21e-37'
p311
S'144'
p312
S'swissprot|Q9BSE4|HERP2_HUMAN Homocysteine-responsive endoplasmic reticulum-resident ubiquitin-like domain member 2 protein OS=Homo sapiens (Human)'
p313
ttRp314
sS'35|m.16'
p315
g180
(g181
g182
(g315
S'438'
p316
S'swissprot|Q9BSE4|HERP2_HUMAN'
p317
S'406'
p318
S'1/1'
p319
S'31.723'
p320
S'151'
p321
S'476'
p322
S'201'
p323
S'18'
p324
S'1'
S'432'
p325
S'6'
S'401'
p326
S'2.61e-39'
p327
S'149'
p328
S'swissprot|Q9BSE4|HERP2_HUMAN Homocysteine-responsive endoplasmic reticulum-resident ubiquitin-like domain member 2 protein OS=Homo sapiens (Human)'
p329
ttRp330
sS'34|m.15'
p331
g180
(g181
g182
(g331
S'511'
p332
S'swissprot|P20107|ZRC1_YEAST'
p333
S'442'
p334
S'1/1'
p335
S'36.147'
p336
S'167'
p337
S'462'
p338
S'194'
p339
S'12'
p340
S'31'
p341
S'486'
p342
S'19'
p343
S'385'
p344
S'2.08e-74'
p345
S'244'
p346
S"swissprot|P20107|ZRC1_YEAST Zinc/cadmium resistance protein OS=Saccharomyces cerevisiae (strain ATCC 204508 / S288c) (Baker's yeast)"
p347
ttRp348
sS'30|m.10'
p349
g180
(g181
g182
(g349
S'201'
p350
S'swissprot|A8KB59|CC153_DANRE'
p351
S'202'
p352
S'1/1'
p353
S'36.158'
p354
S'64'
p355
S'177'
p356
S'111'
p357
S'1'
S'22'
p358
S'198'
p359
S'26'
p360
S'200'
p361
S'5.50e-28'
p362
S'107'
p363
S'swissprot|A8KB59|CC153_DANRE Coiled-coil domain-containing protein 153 OS=Danio rerio (Zebrafish) (Brachydanio rerio)'
p364
ttRp365
sS'37|m.18'
p366
g180
(g181
g182
(g366
S'105'
p367
S'swissprot|Q9UK10|ZN225_HUMAN'
p368
S'706'
p369
S'1/1'
p370
S'36.842'
p371
S'28'
p372
S'76'
p373
S'46'
p374
S'1'
S'30'
p375
S'103'
p376
S'259'
p377
S'334'
p378
S'3.55e-08'
p379
S'52.8'
p380
S'swissprot|Q9UK10|ZN225_HUMAN Zinc finger protein 225 OS=Homo sapiens (Human)'
p381
ttRp382
sS'28|m.7'
p383
g180
(g181
g182
(g383
S'444'
p384
S'swissprot|Q9Y305|ACOT9_HUMAN'
p385
S'439'
p386
S'1/1'
p387
S'42.078'
p388
S'162'
p389
S'385'
p390
S'208'
p391
S'5'
S'71'
p392
S'443'
p393
S'53'
p394
S'434'
p395
S'5.81e-98'
p396
S'303'
p397
S'swissprot|Q9Y305|ACOT9_HUMAN Acyl-coenzyme A thioesterase 9, mitochondrial OS=Homo sapiens (Human)'
p398
ttRp399
sS'25|m.2'
p400
g180
(g181
g182
(g400
S'1096'
p401
S'swissprot|A2AWA9|RBGP1_MOUSE'
p402
S'1064'
p403
S'1/1'
p404
S'38.477'
p405
S'389'
p406
S'1011'
p407
S'558'
p408
S'15'
p409
S'106'
p410
S'1086'
p411
S'69'
p412
S'1045'
p413
S'0.0'
p414
S'678'
p415
S'swissprot|A2AWA9|RBGP1_MOUSE Rab GTPase-activating protein 1 OS=Mus musculus (Mouse)'
p416
ttRp417
sS'26|m.4'
p418
g180
(g181
g182
(g418
S'1096'
p419
S'swissprot|A2AWA9|RBGP1_MOUSE'
p420
S'1064'
p421
S'1/1'
p422
S'38.477'
p423
S'389'
p424
S'1011'
p425
S'558'
p426
S'15'
p427
S'106'
p428
S'1086'
p429
S'69'
p430
S'1045'
p431
S'0.0'
p432
S'678'
p433
S'swissprot|A2AWA9|RBGP1_MOUSE Rab GTPase-activating protein 1 OS=Mus musculus (Mouse)'
p434
ttRp435
sS'29|m.8'
p436
g180
(g181
g182
(g436
S'748'
p437
S'swissprot|Q9Z129|RECQ1_MOUSE'
p438
S'648'
p439
S'1/1'
p440
S'46.900'
p441
S'295'
p442
S'629'
p443
S'321'
p444
S'5'
S'9'
S'625'
p445
S'4'
S'631'
p446
S'0.0'
p447
S'585'
p448
S'swissprot|Q9Z129|RECQ1_MOUSE ATP-dependent DNA helicase Q1 OS=Mus musculus (Mouse)'
p449
ttRp450
sS'38|m.19'
p451
g180
(g181
g182
(g451
S'105'
p452
S'swissprot|Q9UK10|ZN225_HUMAN'
p453
S'706'
p454
S'1/1'
p455
S'36.842'
p456
S'28'
p457
S'76'
p458
S'46'
p459
S'1'
S'30'
p460
S'103'
p461
S'259'
p462
S'334'
p463
S'3.55e-08'
p464
S'52.8'
p465
S'swissprot|Q9UK10|ZN225_HUMAN Zinc finger protein 225 OS=Homo sapiens (Human)'
p466
ttRp467
ssg5
(lp468
I1000
aI2500
aI5000
aI10000
aI25000
aI50000
aI100000
asg94
Nsg7
Nsg73
Nsg11
g12
sg17
I00
sg48
g49
sa(dp469
g28
(lp470
g30
ag31
asg114
g115
sg76
g77
sg9
Nsg137
g138
sg13
Nsg153
g154
sg18
I33
sg10
I33
sg24
g25
sg26
I00
sg162
g163
sg55
g56
sg32
g106
sg4
I0
sg8
S'2'
sg63
Nsg14
(lp471
sg16
I0
sg165
g166
sg19
(lp472
(lp473
g22
ag23
aa(lp474
g101
ag102
aasg3
I300
sg177
(dp475
g179
g180
(g181
g182
(g179
g183
g184
g185
g186
g187
g188
g189
g190
S'3'
g191
g192
g193
g194
g195
g196
g197
ttRp476
sg199
g180
(g181
g182
(g199
g200
g201
g202
g203
g204
g205
g206
g207
g208
g209
g210
g211
g212
g213
g214
g215
ttRp477
sg217
g180
(g181
g182
(g217
g218
g219
g220
g221
g222
g223
g224
g225
S'2'
S'1'
g226
S'1'
g227
g228
g229
g230
ttRp478
sg232
g180
(g181
g182
(g232
g233
g234
g235
g236
g237
g238
g239
g240
S'9'
S'1'
g241
g242
g243
g244
g245
g246
ttRp479
sg248
g180
(g181
g182
(g248
g249
g250
g251
g252
g253
g254
g255
g256
S'0'
g257
g258
g259
g260
g261
g262
g263
ttRp480
sg265
g180
(g181
g182
(g265
g266
g267
g268
g269
g270
g271
g272
g273
g274
g275
g276
g277
g278
g279
g280
g281
ttRp481
sg283
g180
(g181
g182
(g283
g284
g285
g286
g287
g288
g289
g290
g291
g292
S'5'
g293
S'2'
g294
g295
g296
g297
ttRp482
sg299
g180
(g181
g182
(g299
g300
g301
g302
g303
g304
g305
g306
g307
g308
S'1'
g309
S'6'
g310
g311
g312
g313
ttRp483
sg315
g180
(g181
g182
(g315
g316
g317
g318
g319
g320
g321
g322
g323
g324
S'1'
g325
S'6'
g326
g327
g328
g329
ttRp484
sg331
g180
(g181
g182
(g331
g332
g333
g334
g335
g336
g337
g338
g339
g340
g341
g342
g343
g344
g345
g346
g347
ttRp485
sg349
g180
(g181
g182
(g349
g350
g351
g352
g353
g354
g355
g356
g357
S'1'
g358
g359
g360
g361
g362
g363
g364
ttRp486
sg366
g180
(g181
g182
(g366
g367
g368
g369
g370
g371
g372
g373
g374
S'1'
g375
g376
g377
g378
g379
g380
g381
ttRp487
sg383
g180
(g181
g182
(g383
g384
g385
g386
g387
g388
g389
g390
g391
S'5'
g392
g393
g394
g395
g396
g397
g398
ttRp488
sg400
g180
(g181
g182
(g400
g401
g402
g403
g404
g405
g406
g407
g408
g409
g410
g411
g412
g413
g414
g415
g416
ttRp489
sg418
g180
(g181
g182
(g418
g419
g420
g421
g422
g423
g424
g425
g426
g427
g428
g429
g430
g431
g432
g433
g434
ttRp490
sg436
g180
(g181
g182
(g436
g437
g438
g439
g440
g441
g442
g443
g444
S'5'
S'9'
g445
S'4'
g446
g447
g448
g449
ttRp491
sg451
g180
(g181
g182
(g451
g452
g453
g454
g455
g456
g457
g458
g459
S'1'
g460
g461
g462
g463
g464
g465
g466
ttRp492
ssg5
(lp493
I1000
aI2500
aI5000
aI10000
aI25000
aI50000
aI100000
asg94
Nsg7
Nsg73
Nsg11
g12
sg17
I00
sg48
g49
sa.