(lp1
(dp2
S'_run_id'
p3
S'8'
sS'previous'
p4
NsS'id'
p5
S'JGI_NEMVEC'
p6
sS'chkfile'
p7
S'annotate.chk'
p8
sS'sequences'
p9
S'JGI_NEMVEC.fa'
p10
sa(dp11
g3
S'8'
sg4
Nsg5
g6
sg7
g8
sg9
g10
sa(dp12
g3
S'8'
sg4
Nsg5
g6
sg7
g8
sg9
g10
sa.